
========================================================================

** ELF Header Information

    File Name: freertos_helloworld\freertos_helloworld.axf

    Machine class: ELFCLASS32 (32-bit)
    Data encoding: ELFDATA2LSB (Little endian)
    Header version: EV_CURRENT (Current version)
    Operating System ABI: none
    ABI Version: 0
    File Type: ET_EXEC (Executable) (2)
    Machine: EM_ARM (ARM)

    Image Entry point: 0x08000199
    Flags: EF_ARM_HASENTRY (0x05000002)

    ARM ELF revision: 5 (ABI version 2)

    Conforms to Base float procedure-call standard

    Built with
    Component: ARM Compiler 5.06 update 7 (build 960) Tool: armasm [4d35fa]
    Component: ARM Compiler 5.06 update 7 (build 960) Tool: armlink [4d3601]

    Header size: 52 bytes (0x34)
    Program header entry size: 32 bytes (0x20)
    Section header entry size: 40 bytes (0x28)

    Program header entries: 1
    Section header entries: 16

    Program header offset: 782364 (0x000bf01c)
    Section header offset: 782396 (0x000bf03c)

    Section header string table index: 15

========================================================================

** Program header #0 (PT_LOAD) [PF_X + PF_W + PF_R + PF_ARM_ENTRY]
    Size : 32860 bytes (13012 bytes in file)
    Virtual address: 0x08000000 (Alignment 8)


========================================================================

** Section #1 'ER_IROM1' (SHT_PROGBITS) [SHF_ALLOC + SHF_EXECINSTR]
    Size   : 12844 bytes (alignment 4)
    Address: 0x08000000

    $d.realdata
    RESET
    __Vectors
        0x08000000:    20004e30    0N.     DCD    536890928
        0x08000004:    08000271    q...    DCD    134218353
        0x08000008:    0800113f    ?...    DCD    134222143
        0x0800000c:    080010a5    ....    DCD    134221989
        0x08000010:    0800113d    =...    DCD    134222141
        0x08000014:    080003a1    ....    DCD    134218657
        0x08000018:    0800147b    {...    DCD    134222971
        0x0800001c:    00000000    ....    DCD    0
        0x08000020:    00000000    ....    DCD    0
        0x08000024:    00000000    ....    DCD    0
        0x08000028:    00000000    ....    DCD    0
        0x0800002c:    080001b1    ....    DCD    134218161
        0x08000030:    080003a3    ....    DCD    134218659
        0x08000034:    00000000    ....    DCD    0
        0x08000038:    0800020d    ....    DCD    134218253
        0x0800003c:    08001195    ....    DCD    134222229
        0x08000040:    0800028b    ....    DCD    134218379
        0x08000044:    0800028b    ....    DCD    134218379
        0x08000048:    0800028b    ....    DCD    134218379
        0x0800004c:    0800028b    ....    DCD    134218379
        0x08000050:    0800028b    ....    DCD    134218379
        0x08000054:    0800028b    ....    DCD    134218379
        0x08000058:    0800028b    ....    DCD    134218379
        0x0800005c:    0800028b    ....    DCD    134218379
        0x08000060:    0800028b    ....    DCD    134218379
        0x08000064:    0800028b    ....    DCD    134218379
        0x08000068:    0800028b    ....    DCD    134218379
        0x0800006c:    0800028b    ....    DCD    134218379
        0x08000070:    0800028b    ....    DCD    134218379
        0x08000074:    0800028b    ....    DCD    134218379
        0x08000078:    0800028b    ....    DCD    134218379
        0x0800007c:    0800028b    ....    DCD    134218379
        0x08000080:    0800028b    ....    DCD    134218379
        0x08000084:    0800028b    ....    DCD    134218379
        0x08000088:    0800028b    ....    DCD    134218379
        0x0800008c:    00000000    ....    DCD    0
        0x08000090:    00000000    ....    DCD    0
        0x08000094:    00000000    ....    DCD    0
        0x08000098:    00000000    ....    DCD    0
        0x0800009c:    0800028b    ....    DCD    134218379
        0x080000a0:    0800028b    ....    DCD    134218379
        0x080000a4:    08001251    Q...    DCD    134222417
        0x080000a8:    0800028b    ....    DCD    134218379
        0x080000ac:    0800028b    ....    DCD    134218379
        0x080000b0:    0800028b    ....    DCD    134218379
        0x080000b4:    0800028b    ....    DCD    134218379
        0x080000b8:    0800028b    ....    DCD    134218379
        0x080000bc:    0800028b    ....    DCD    134218379
        0x080000c0:    0800028b    ....    DCD    134218379
        0x080000c4:    0800028b    ....    DCD    134218379
        0x080000c8:    0800028b    ....    DCD    134218379
        0x080000cc:    0800028b    ....    DCD    134218379
        0x080000d0:    0800028b    ....    DCD    134218379
        0x080000d4:    0800028b    ....    DCD    134218379
        0x080000d8:    0800028b    ....    DCD    134218379
        0x080000dc:    00000000    ....    DCD    0
        0x080000e0:    0800028b    ....    DCD    134218379
        0x080000e4:    0800028b    ....    DCD    134218379
        0x080000e8:    0800028b    ....    DCD    134218379
        0x080000ec:    00000000    ....    DCD    0
        0x080000f0:    00000000    ....    DCD    0
        0x080000f4:    00000000    ....    DCD    0
        0x080000f8:    00000000    ....    DCD    0
        0x080000fc:    0800028b    ....    DCD    134218379
        0x08000100:    00000000    ....    DCD    0
        0x08000104:    0800028b    ....    DCD    134218379
        0x08000108:    0800028b    ....    DCD    134218379
        0x0800010c:    0800028b    ....    DCD    134218379
        0x08000110:    00000000    ....    DCD    0
        0x08000114:    00000000    ....    DCD    0
        0x08000118:    00000000    ....    DCD    0
        0x0800011c:    00000000    ....    DCD    0
        0x08000120:    0800028b    ....    DCD    134218379
        0x08000124:    0800028b    ....    DCD    134218379
        0x08000128:    0800028b    ....    DCD    134218379
        0x0800012c:    0800028b    ....    DCD    134218379
        0x08000130:    0800028b    ....    DCD    134218379
        0x08000134:    00000000    ....    DCD    0
        0x08000138:    00000000    ....    DCD    0
        0x0800013c:    00000000    ....    DCD    0
        0x08000140:    00000000    ....    DCD    0
        0x08000144:    00000000    ....    DCD    0
        0x08000148:    00000000    ....    DCD    0
        0x0800014c:    0800028b    ....    DCD    134218379
        0x08000150:    0800028b    ....    DCD    134218379
        0x08000154:    0800028b    ....    DCD    134218379
        0x08000158:    0800028b    ....    DCD    134218379
        0x0800015c:    0800028b    ....    DCD    134218379
        0x08000160:    0800028b    ....    DCD    134218379
        0x08000164:    0800028b    ....    DCD    134218379
        0x08000168:    00000000    ....    DCD    0
        0x0800016c:    00000000    ....    DCD    0
        0x08000170:    00000000    ....    DCD    0
        0x08000174:    00000000    ....    DCD    0
        0x08000178:    00000000    ....    DCD    0
        0x0800017c:    00000000    ....    DCD    0
        0x08000180:    00000000    ....    DCD    0
        0x08000184:    0800028b    ....    DCD    134218379
        0x08000188:    00000000    ....    DCD    0
        0x0800018c:    00000000    ....    DCD    0
        0x08000190:    0800028b    ....    DCD    134218379
        0x08000194:    0800028b    ....    DCD    134218379
    $t
    .ARM.Collect$$$$00000000
    .ARM.Collect$$$$00000001
    __Vectors_End
    __main
    _main_stk
        0x08000198:    f8dfd010    ....    LDR      sp,__lit__00000000 ; [0x80001ac] = 0x20004e30
    .ARM.Collect$$$$00000004
    _main_scatterload
        0x0800019c:    f000f8ee    ....    BL       __scatterload ; 0x800037c
    .ARM.Collect$$$$00000008
    .ARM.Collect$$$$0000000A
    .ARM.Collect$$$$0000000B
    __main_after_scatterload
    _main_clock
    _main_cpp_init
    _main_init
        0x080001a0:    4800        .H      LDR      r0,[pc,#0] ; [0x80001a4] = 0x8001869
        0x080001a2:    4700        .G      BX       r0
    $d
        0x080001a4:    08001869    i...    DCD    134223977
    $t
    .ARM.Collect$$$$0000000E
    __rt_lib_shutdown_fini
        0x080001a8:    f3af8000    ....    NOP.W    
    $d
    .ARM.Collect$$$$00002712
    __lit__00000000
    .ARM.Collect$$$$0000000F
    .ARM.Collect$$$$00000011
    __rt_final_cpp
    __rt_final_exit
        0x080001ac:    20004e30    0N.     DCD    536890928
    $t
    .emb_text
    $v0
    SVC_Handler
        0x080001b0:    4b2c        ,K      LDR      r3,[pc,#176] ; [0x8000264] = 0x20000024
        0x080001b2:    6819        .h      LDR      r1,[r3,#0]
        0x080001b4:    6808        .h      LDR      r0,[r1,#0]
        0x080001b6:    e8b04ff0    ...O    LDM      r0!,{r4-r11,lr}
        0x080001ba:    f3808809    ....    MSR      PSP,r0
        0x080001be:    f3bf8f6f    ..o.    ISB      
        0x080001c2:    f04f0000    O...    MOV      r0,#0
        0x080001c6:    f3808811    ....    MSR      BASEPRI,r0
        0x080001ca:    4770        pG      BX       lr
    $d
        0x080001cc:    00000000    ....    DCD    0
    $t
    __asm___6_port_c_39a90d8d__prvStartFirstTask
        0x080001d0:    4808        .H      LDR      r0,[pc,#32] ; [0x80001f4] = 0xe000ed08
        0x080001d2:    6800        .h      LDR      r0,[r0,#0]
        0x080001d4:    6800        .h      LDR      r0,[r0,#0]
        0x080001d6:    f3808808    ....    MSR      MSP,r0
        0x080001da:    f04f0000    O...    MOV      r0,#0
        0x080001de:    f3808814    ....    MSR      CONTROL,r0
        0x080001e2:    b662        b.      CPSIE    i
        0x080001e4:    b661        a.      CPSIE    f
        0x080001e6:    f3bf8f4f    ..O.    DSB      
        0x080001ea:    f3bf8f6f    ..o.    ISB      
        0x080001ee:    df00        ..      SVC      #0x0 ; formerly SWI
        0x080001f0:    bf00        ..      NOP      
        0x080001f2:    bf00        ..      NOP      
    $d
        0x080001f4:    e000ed08    ....    DCD    3758157064
    $t
    __asm___6_port_c_39a90d8d__prvEnableVFP
        0x080001f8:    f8df000c    ....    LDR.W    r0,[pc,#12] ; [0x8000208] = 0xe000ed88
        0x080001fc:    6801        .h      LDR      r1,[r0,#0]
        0x080001fe:    f4410170    A.p.    ORR      r1,r1,#0xf00000
        0x08000202:    6001        .`      STR      r1,[r0,#0]
        0x08000204:    4770        pG      BX       lr
        0x08000206:    bf00        ..      NOP      
    $d
        0x08000208:    e000ed88    ....    DCD    3758157192
    $t
    PendSV_Handler
        0x0800020c:    f3ef8009    ....    MRS      r0,PSP
        0x08000210:    f3bf8f6f    ..o.    ISB      
        0x08000214:    4b13        .K      LDR      r3,[pc,#76] ; [0x8000264] = 0x20000024
        0x08000216:    681a        .h      LDR      r2,[r3,#0]
        0x08000218:    f01e0f10    ....    TST      lr,#0x10
        0x0800021c:    bf08        ..      IT       EQ
        0x0800021e:    ed208a10     ...    VSTMDBEQ r0!,{s16-s31}
        0x08000222:    e9204ff0     ..O    STMDB    r0!,{r4-r11,lr}
        0x08000226:    6010        .`      STR      r0,[r2,#0]
        0x08000228:    b409        ..      PUSH     {r0,r3}
        0x0800022a:    f04f0050    O.P.    MOV      r0,#0x50
        0x0800022e:    f3808811    ....    MSR      BASEPRI,r0
        0x08000232:    f3bf8f4f    ..O.    DSB      
        0x08000236:    f3bf8f6f    ..o.    ISB      
        0x0800023a:    f002fa73    ..s.    BL       vTaskSwitchContext ; 0x8002724
        0x0800023e:    f04f0000    O...    MOV      r0,#0
        0x08000242:    f3808811    ....    MSR      BASEPRI,r0
        0x08000246:    bc09        ..      POP      {r0,r3}
        0x08000248:    6819        .h      LDR      r1,[r3,#0]
        0x0800024a:    6808        .h      LDR      r0,[r1,#0]
        0x0800024c:    e8b04ff0    ...O    LDM      r0!,{r4-r11,lr}
        0x08000250:    f01e0f10    ....    TST      lr,#0x10
        0x08000254:    bf08        ..      IT       EQ
        0x08000256:    ecb08a10    ....    VLDMEQ   r0!,{s16-s31}
        0x0800025a:    f3808809    ....    MSR      PSP,r0
        0x0800025e:    f3bf8f6f    ..o.    ISB      
        0x08000262:    4770        pG      BX       lr
    $d
        0x08000264:    20000024    $..     DCD    536870948
    $t
    vPortGetIPSR
        0x08000268:    f3ef8005    ....    MRS      r0,IPSR
        0x0800026c:    4770        pG      BX       lr
        0x0800026e:    0000        ..      MOVS     r0,r0
    .text
    $v0
    Reset_Handler
        0x08000270:    4806        .H      LDR      r0,[pc,#24] ; [0x800028c] = 0x8001241
        0x08000272:    4780        .G      BLX      r0
        0x08000274:    4806        .H      LDR      r0,[pc,#24] ; [0x8000290] = 0x8000199
        0x08000276:    4700        .G      BX       r0
        0x08000278:    e7fe        ..      B        0x8000278 ; Reset_Handler + 8
        0x0800027a:    e7fe        ..      B        0x800027a ; Reset_Handler + 10
        0x0800027c:    e7fe        ..      B        0x800027c ; Reset_Handler + 12
        0x0800027e:    e7fe        ..      B        0x800027e ; Reset_Handler + 14
        0x08000280:    e7fe        ..      B        0x8000280 ; Reset_Handler + 16
        0x08000282:    e7fe        ..      B        0x8000282 ; Reset_Handler + 18
        0x08000284:    e7fe        ..      B        0x8000284 ; Reset_Handler + 20
        0x08000286:    e7fe        ..      B        0x8000286 ; Reset_Handler + 22
        0x08000288:    e7fe        ..      B        0x8000288 ; Reset_Handler + 24
    ADC_IRQHandler
    DMA1_Stream0_IRQHandler
    DMA1_Stream1_IRQHandler
    DMA1_Stream2_IRQHandler
    DMA1_Stream3_IRQHandler
    DMA1_Stream4_IRQHandler
    DMA1_Stream5_IRQHandler
    DMA1_Stream6_IRQHandler
    DMA1_Stream7_IRQHandler
    DMA2_Stream0_IRQHandler
    DMA2_Stream1_IRQHandler
    DMA2_Stream2_IRQHandler
    DMA2_Stream3_IRQHandler
    DMA2_Stream4_IRQHandler
    DMA2_Stream5_IRQHandler
    DMA2_Stream6_IRQHandler
    DMA2_Stream7_IRQHandler
    EXTI0_IRQHandler
    EXTI15_10_IRQHandler
    EXTI1_IRQHandler
    EXTI2_IRQHandler
    EXTI3_IRQHandler
    EXTI4_IRQHandler
    EXTI9_5_IRQHandler
    FLASH_IRQHandler
    FPU_IRQHandler
    I2C1_ER_IRQHandler
    I2C1_EV_IRQHandler
    I2C2_ER_IRQHandler
    I2C2_EV_IRQHandler
    I2C3_ER_IRQHandler
    I2C3_EV_IRQHandler
    OTG_FS_IRQHandler
    OTG_FS_WKUP_IRQHandler
    PVD_IRQHandler
    RCC_IRQHandler
    RTC_Alarm_IRQHandler
    RTC_WKUP_IRQHandler
    SDIO_IRQHandler
    SPI1_IRQHandler
    SPI2_IRQHandler
    SPI3_IRQHandler
    SPI4_IRQHandler
    SPI5_IRQHandler
    TAMP_STAMP_IRQHandler
    TIM1_BRK_TIM9_IRQHandler
    TIM1_CC_IRQHandler
    TIM1_TRG_COM_TIM11_IRQHandler
    TIM2_IRQHandler
    TIM3_IRQHandler
    TIM4_IRQHandler
    TIM5_IRQHandler
    USART1_IRQHandler
    USART2_IRQHandler
    USART6_IRQHandler
    WWDG_IRQHandler
        0x0800028a:    e7fe        ..      B        ADC_IRQHandler ; 0x800028a
    $d
        0x0800028c:    08001241    A...    DCD    134222401
        0x08000290:    08000199    ....    DCD    134218137
    $t
    .text
    __aeabi_uldivmod
        0x08000294:    e92d5ff0    -.._    PUSH     {r4-r12,lr}
        0x08000298:    4605        .F      MOV      r5,r0
        0x0800029a:    2000        .       MOVS     r0,#0
        0x0800029c:    4692        .F      MOV      r10,r2
        0x0800029e:    469b        .F      MOV      r11,r3
        0x080002a0:    4688        .F      MOV      r8,r1
        0x080002a2:    4606        .F      MOV      r6,r0
        0x080002a4:    4681        .F      MOV      r9,r0
        0x080002a6:    2440        @$      MOVS     r4,#0x40
        0x080002a8:    e01b        ..      B        0x80002e2 ; __aeabi_uldivmod + 78
        0x080002aa:    4628        (F      MOV      r0,r5
        0x080002ac:    4641        AF      MOV      r1,r8
        0x080002ae:    4647        GF      MOV      r7,r8
        0x080002b0:    4622        "F      MOV      r2,r4
        0x080002b2:    f000f853    ..S.    BL       __aeabi_llsr ; 0x800035c
        0x080002b6:    4653        SF      MOV      r3,r10
        0x080002b8:    465a        ZF      MOV      r2,r11
        0x080002ba:    1ac0        ..      SUBS     r0,r0,r3
        0x080002bc:    4191        .A      SBCS     r1,r1,r2
        0x080002be:    d310        ..      BCC      0x80002e2 ; __aeabi_uldivmod + 78
        0x080002c0:    4611        .F      MOV      r1,r2
        0x080002c2:    4618        .F      MOV      r0,r3
        0x080002c4:    4622        "F      MOV      r2,r4
        0x080002c6:    f000f83a    ..:.    BL       __aeabi_llsl ; 0x800033e
        0x080002ca:    1a2d        -.      SUBS     r5,r5,r0
        0x080002cc:    eb670801    g...    SBC      r8,r7,r1
        0x080002d0:    464f        OF      MOV      r7,r9
        0x080002d2:    4622        "F      MOV      r2,r4
        0x080002d4:    2001        .       MOVS     r0,#1
        0x080002d6:    2100        .!      MOVS     r1,#0
        0x080002d8:    f000f831    ..1.    BL       __aeabi_llsl ; 0x800033e
        0x080002dc:    eb170900    ....    ADDS     r9,r7,r0
        0x080002e0:    414e        NA      ADCS     r6,r6,r1
        0x080002e2:    1e20         .      SUBS     r0,r4,#0
        0x080002e4:    f1a40401    ....    SUB      r4,r4,#1
        0x080002e8:    dcdf        ..      BGT      0x80002aa ; __aeabi_uldivmod + 22
        0x080002ea:    4648        HF      MOV      r0,r9
        0x080002ec:    4631        1F      MOV      r1,r6
        0x080002ee:    462a        *F      MOV      r2,r5
        0x080002f0:    4643        CF      MOV      r3,r8
        0x080002f2:    e8bd9ff0    ....    POP      {r4-r12,pc}
    .text
    __aeabi_memcpy
    __aeabi_memcpy4
    __aeabi_memcpy8
        0x080002f6:    ea400301    @...    ORR      r3,r0,r1
        0x080002fa:    079b        ..      LSLS     r3,r3,#30
        0x080002fc:    d003        ..      BEQ      0x8000306 ; __aeabi_memcpy + 16
        0x080002fe:    e009        ..      B        0x8000314 ; __aeabi_memcpy + 30
        0x08000300:    c908        ..      LDM      r1!,{r3}
        0x08000302:    1f12        ..      SUBS     r2,r2,#4
        0x08000304:    c008        ..      STM      r0!,{r3}
        0x08000306:    2a04        .*      CMP      r2,#4
        0x08000308:    d2fa        ..      BCS      0x8000300 ; __aeabi_memcpy + 10
        0x0800030a:    e003        ..      B        0x8000314 ; __aeabi_memcpy + 30
        0x0800030c:    f8113b01    ...;    LDRB     r3,[r1],#1
        0x08000310:    f8003b01    ...;    STRB     r3,[r0],#1
        0x08000314:    1e52        R.      SUBS     r2,r2,#1
        0x08000316:    d2f9        ..      BCS      0x800030c ; __aeabi_memcpy + 22
        0x08000318:    4770        pG      BX       lr
    .text
    __aeabi_memset
    __aeabi_memset4
    __aeabi_memset8
        0x0800031a:    b2d2        ..      UXTB     r2,r2
        0x0800031c:    e001        ..      B        0x8000322 ; __aeabi_memset + 8
        0x0800031e:    f8002b01    ...+    STRB     r2,[r0],#1
        0x08000322:    1e49        I.      SUBS     r1,r1,#1
        0x08000324:    d2fb        ..      BCS      0x800031e ; __aeabi_memset + 4
        0x08000326:    4770        pG      BX       lr
    __aeabi_memclr
    __aeabi_memclr4
    __aeabi_memclr8
        0x08000328:    2200        ."      MOVS     r2,#0
        0x0800032a:    e7f6        ..      B        __aeabi_memset ; 0x800031a
    memset
        0x0800032c:    b510        ..      PUSH     {r4,lr}
        0x0800032e:    4613        .F      MOV      r3,r2
        0x08000330:    460a        .F      MOV      r2,r1
        0x08000332:    4604        .F      MOV      r4,r0
        0x08000334:    4619        .F      MOV      r1,r3
        0x08000336:    f7fffff0    ....    BL       __aeabi_memset ; 0x800031a
        0x0800033a:    4620         F      MOV      r0,r4
        0x0800033c:    bd10        ..      POP      {r4,pc}
    .text
    __aeabi_llsl
    _ll_shift_l
        0x0800033e:    2a20         *      CMP      r2,#0x20
        0x08000340:    db04        ..      BLT      0x800034c ; __aeabi_llsl + 14
        0x08000342:    3a20         :      SUBS     r2,r2,#0x20
        0x08000344:    fa00f102    ....    LSL      r1,r0,r2
        0x08000348:    2000        .       MOVS     r0,#0
        0x0800034a:    4770        pG      BX       lr
        0x0800034c:    4091        .@      LSLS     r1,r1,r2
        0x0800034e:    f1c20320    .. .    RSB      r3,r2,#0x20
        0x08000352:    fa20f303     ...    LSR      r3,r0,r3
        0x08000356:    4319        .C      ORRS     r1,r1,r3
        0x08000358:    4090        .@      LSLS     r0,r0,r2
        0x0800035a:    4770        pG      BX       lr
    .text
    __aeabi_llsr
    _ll_ushift_r
        0x0800035c:    2a20         *      CMP      r2,#0x20
        0x0800035e:    db04        ..      BLT      0x800036a ; __aeabi_llsr + 14
        0x08000360:    3a20         :      SUBS     r2,r2,#0x20
        0x08000362:    fa21f002    !...    LSR      r0,r1,r2
        0x08000366:    2100        .!      MOVS     r1,#0
        0x08000368:    4770        pG      BX       lr
        0x0800036a:    fa21f302    !...    LSR      r3,r1,r2
        0x0800036e:    40d0        .@      LSRS     r0,r0,r2
        0x08000370:    f1c20220    .. .    RSB      r2,r2,#0x20
        0x08000374:    4091        .@      LSLS     r1,r1,r2
        0x08000376:    4308        .C      ORRS     r0,r0,r1
        0x08000378:    4619        .F      MOV      r1,r3
        0x0800037a:    4770        pG      BX       lr
    .text
    __scatterload
    __scatterload_rt2
        0x0800037c:    4c06        .L      LDR      r4,[pc,#24] ; [0x8000398] = 0x800320c
        0x0800037e:    4d07        .M      LDR      r5,[pc,#28] ; [0x800039c] = 0x800322c
        0x08000380:    e006        ..      B        0x8000390 ; __scatterload + 20
        0x08000382:    68e0        .h      LDR      r0,[r4,#0xc]
        0x08000384:    f0400301    @...    ORR      r3,r0,#1
        0x08000388:    e8940007    ....    LDM      r4,{r0-r2}
        0x0800038c:    4798        .G      BLX      r3
        0x0800038e:    3410        .4      ADDS     r4,r4,#0x10
        0x08000390:    42ac        .B      CMP      r4,r5
        0x08000392:    d3f6        ..      BCC      0x8000382 ; __scatterload + 6
        0x08000394:    f7ffff04    ....    BL       __main_after_scatterload ; 0x80001a0
    $d
        0x08000398:    0800320c    .2..    DCD    134230540
        0x0800039c:    0800322c    ,2..    DCD    134230572
    $t
    i.BusFault_Handler
    BusFault_Handler
        0x080003a0:    e7fe        ..      B        BusFault_Handler ; 0x80003a0
    i.DebugMon_Handler
    DebugMon_Handler
        0x080003a2:    4770        pG      BX       lr
    i.Error_Handler
    Error_Handler
        0x080003a4:    b672        r.      CPSID    i
        0x080003a6:    e7fe        ..      B        0x80003a6 ; Error_Handler + 2
    i.HAL_GPIO_Init
    HAL_GPIO_Init
        0x080003a8:    e92d4ff8    -..O    PUSH     {r3-r11,lr}
        0x080003ac:    2200        ."      MOVS     r2,#0
        0x080003ae:    f8df9180    ....    LDR      r9,[pc,#384] ; [0x8000530] = 0x40013c08
        0x080003b2:    f04f0801    O...    MOV      r8,#1
        0x080003b6:    2703        .'      MOVS     r7,#3
        0x080003b8:    f04f0c0f    O...    MOV      r12,#0xf
        0x080003bc:    f1090a04    ....    ADD      r10,r9,#4
        0x080003c0:    f1a90b04    ....    SUB      r11,r9,#4
        0x080003c4:    fa08f502    ....    LSL      r5,r8,r2
        0x080003c8:    680b        .h      LDR      r3,[r1,#0]
        0x080003ca:    402b        +@      ANDS     r3,r3,r5
        0x080003cc:    42ab        .B      CMP      r3,r5
        0x080003ce:    d16e        n.      BNE      0x80004ae ; HAL_GPIO_Init + 262
        0x080003d0:    790c        .y      LDRB     r4,[r1,#4]
        0x080003d2:    f0040403    ....    AND      r4,r4,#3
        0x080003d6:    2c01        .,      CMP      r4,#1
        0x080003d8:    d001        ..      BEQ      0x80003de ; HAL_GPIO_Init + 54
        0x080003da:    2c02        .,      CMP      r4,#2
        0x080003dc:    d115        ..      BNE      0x800040a ; HAL_GPIO_Init + 98
        0x080003de:    6886        .h      LDR      r6,[r0,#8]
        0x080003e0:    0054        T.      LSLS     r4,r2,#1
        0x080003e2:    fa07fe04    ....    LSL      lr,r7,r4
        0x080003e6:    ea26060e    &...    BIC      r6,r6,lr
        0x080003ea:    f8d1e00c    ....    LDR      lr,[r1,#0xc]
        0x080003ee:    fa0efe04    ....    LSL      lr,lr,r4
        0x080003f2:    ea4e0e06    N...    ORR      lr,lr,r6
        0x080003f6:    f8c0e008    ....    STR      lr,[r0,#8]
        0x080003fa:    6844        Dh      LDR      r4,[r0,#4]
        0x080003fc:    43ac        .C      BICS     r4,r4,r5
        0x080003fe:    790d        .y      LDRB     r5,[r1,#4]
        0x08000400:    f3c51500    ....    UBFX     r5,r5,#4,#1
        0x08000404:    4095        .@      LSLS     r5,r5,r2
        0x08000406:    4325        %C      ORRS     r5,r5,r4
        0x08000408:    6045        E`      STR      r5,[r0,#4]
        0x0800040a:    790c        .y      LDRB     r4,[r1,#4]
        0x0800040c:    43e4        .C      MVNS     r4,r4
        0x0800040e:    07a4        ..      LSLS     r4,r4,#30
        0x08000410:    d008        ..      BEQ      0x8000424 ; HAL_GPIO_Init + 124
        0x08000412:    68c5        .h      LDR      r5,[r0,#0xc]
        0x08000414:    0054        T.      LSLS     r4,r2,#1
        0x08000416:    fa07f604    ....    LSL      r6,r7,r4
        0x0800041a:    43b5        .C      BICS     r5,r5,r6
        0x0800041c:    688e        .h      LDR      r6,[r1,#8]
        0x0800041e:    40a6        .@      LSLS     r6,r6,r4
        0x08000420:    432e        .C      ORRS     r6,r6,r5
        0x08000422:    60c6        .`      STR      r6,[r0,#0xc]
        0x08000424:    790c        .y      LDRB     r4,[r1,#4]
        0x08000426:    f0040403    ....    AND      r4,r4,#3
        0x0800042a:    2c02        .,      CMP      r4,#2
        0x0800042c:    d111        ..      BNE      0x8000452 ; HAL_GPIO_Init + 170
        0x0800042e:    08d4        ..      LSRS     r4,r2,#3
        0x08000430:    eb000684    ....    ADD      r6,r0,r4,LSL #2
        0x08000434:    6a35        5j      LDR      r5,[r6,#0x20]
        0x08000436:    0754        T.      LSLS     r4,r2,#29
        0x08000438:    0ee4        ..      LSRS     r4,r4,#27
        0x0800043a:    fa0cfe04    ....    LSL      lr,r12,r4
        0x0800043e:    ea25050e    %...    BIC      r5,r5,lr
        0x08000442:    f8d1e010    ....    LDR      lr,[r1,#0x10]
        0x08000446:    fa0efe04    ....    LSL      lr,lr,r4
        0x0800044a:    ea4e0e05    N...    ORR      lr,lr,r5
        0x0800044e:    f8c6e020    .. .    STR      lr,[r6,#0x20]
        0x08000452:    6805        .h      LDR      r5,[r0,#0]
        0x08000454:    0054        T.      LSLS     r4,r2,#1
        0x08000456:    fa07f604    ....    LSL      r6,r7,r4
        0x0800045a:    43b5        .C      BICS     r5,r5,r6
        0x0800045c:    790e        .y      LDRB     r6,[r1,#4]
        0x0800045e:    f0060603    ....    AND      r6,r6,#3
        0x08000462:    40a6        .@      LSLS     r6,r6,r4
        0x08000464:    432e        .C      ORRS     r6,r6,r5
        0x08000466:    6006        .`      STR      r6,[r0,#0]
        0x08000468:    684c        Lh      LDR      r4,[r1,#4]
        0x0800046a:    f4143f40    ..@?    TST      r4,#0x30000
        0x0800046e:    d058        X.      BEQ      0x8000522 ; HAL_GPIO_Init + 378
        0x08000470:    4c30        0L      LDR      r4,[pc,#192] ; [0x8000534] = 0x40023844
        0x08000472:    6825        %h      LDR      r5,[r4,#0]
        0x08000474:    f4454580    E..E    ORR      r5,r5,#0x4000
        0x08000478:    6025        %`      STR      r5,[r4,#0]
        0x0800047a:    6824        $h      LDR      r4,[r4,#0]
        0x0800047c:    f4044480    ...D    AND      r4,r4,#0x4000
        0x08000480:    9400        ..      STR      r4,[sp,#0]
        0x08000482:    4c2d        -L      LDR      r4,[pc,#180] ; [0x8000538] = 0x40013000
        0x08000484:    f0220503    "...    BIC      r5,r2,#3
        0x08000488:    192e        ..      ADDS     r6,r5,r4
        0x0800048a:    f8d65808    ...X    LDR      r5,[r6,#0x808]
        0x0800048e:    0794        ..      LSLS     r4,r2,#30
        0x08000490:    ea4f7e14    O..~    LSR      lr,r4,#28
        0x08000494:    fa0cf40e    ....    LSL      r4,r12,lr
        0x08000498:    43a5        .C      BICS     r5,r5,r4
        0x0800049a:    4c28        (L      LDR      r4,[pc,#160] ; [0x800053c] = 0x40020000
        0x0800049c:    42a0        .B      CMP      r0,r4
        0x0800049e:    d101        ..      BNE      0x80004a4 ; HAL_GPIO_Init + 252
        0x080004a0:    2400        .$      MOVS     r4,#0
        0x080004a2:    e015        ..      B        0x80004d0 ; HAL_GPIO_Init + 296
        0x080004a4:    4c26        &L      LDR      r4,[pc,#152] ; [0x8000540] = 0x40020400
        0x080004a6:    42a0        .B      CMP      r0,r4
        0x080004a8:    d102        ..      BNE      0x80004b0 ; HAL_GPIO_Init + 264
        0x080004aa:    2401        .$      MOVS     r4,#1
        0x080004ac:    e010        ..      B        0x80004d0 ; HAL_GPIO_Init + 296
        0x080004ae:    e038        8.      B        0x8000522 ; HAL_GPIO_Init + 378
        0x080004b0:    4c24        $L      LDR      r4,[pc,#144] ; [0x8000544] = 0x40020800
        0x080004b2:    42a0        .B      CMP      r0,r4
        0x080004b4:    d101        ..      BNE      0x80004ba ; HAL_GPIO_Init + 274
        0x080004b6:    2402        .$      MOVS     r4,#2
        0x080004b8:    e00a        ..      B        0x80004d0 ; HAL_GPIO_Init + 296
        0x080004ba:    4c23        #L      LDR      r4,[pc,#140] ; [0x8000548] = 0x40020c00
        0x080004bc:    42a0        .B      CMP      r0,r4
        0x080004be:    d101        ..      BNE      0x80004c4 ; HAL_GPIO_Init + 284
        0x080004c0:    2403        .$      MOVS     r4,#3
        0x080004c2:    e005        ..      B        0x80004d0 ; HAL_GPIO_Init + 296
        0x080004c4:    4c21        !L      LDR      r4,[pc,#132] ; [0x800054c] = 0x40021000
        0x080004c6:    42a0        .B      CMP      r0,r4
        0x080004c8:    d101        ..      BNE      0x80004ce ; HAL_GPIO_Init + 294
        0x080004ca:    2404        .$      MOVS     r4,#4
        0x080004cc:    e000        ..      B        0x80004d0 ; HAL_GPIO_Init + 296
        0x080004ce:    2407        .$      MOVS     r4,#7
        0x080004d0:    fa04f40e    ....    LSL      r4,r4,lr
        0x080004d4:    432c        ,C      ORRS     r4,r4,r5
        0x080004d6:    f8c64808    ...H    STR      r4,[r6,#0x808]
        0x080004da:    f8d94000    ...@    LDR      r4,[r9,#0]
        0x080004de:    439c        .C      BICS     r4,r4,r3
        0x080004e0:    684d        Mh      LDR      r5,[r1,#4]
        0x080004e2:    02ed        ..      LSLS     r5,r5,#11
        0x080004e4:    d500        ..      BPL      0x80004e8 ; HAL_GPIO_Init + 320
        0x080004e6:    431c        .C      ORRS     r4,r4,r3
        0x080004e8:    f8c94000    ...@    STR      r4,[r9,#0]
        0x080004ec:    f8da4000    ...@    LDR      r4,[r10,#0]
        0x080004f0:    439c        .C      BICS     r4,r4,r3
        0x080004f2:    684d        Mh      LDR      r5,[r1,#4]
        0x080004f4:    02ad        ..      LSLS     r5,r5,#10
        0x080004f6:    d500        ..      BPL      0x80004fa ; HAL_GPIO_Init + 338
        0x080004f8:    431c        .C      ORRS     r4,r4,r3
        0x080004fa:    f8ca4000    ...@    STR      r4,[r10,#0]
        0x080004fe:    f8db4000    ...@    LDR      r4,[r11,#0]
        0x08000502:    439c        .C      BICS     r4,r4,r3
        0x08000504:    684d        Mh      LDR      r5,[r1,#4]
        0x08000506:    03ad        ..      LSLS     r5,r5,#14
        0x08000508:    d500        ..      BPL      0x800050c ; HAL_GPIO_Init + 356
        0x0800050a:    431c        .C      ORRS     r4,r4,r3
        0x0800050c:    f8cb4000    ...@    STR      r4,[r11,#0]
        0x08000510:    4d07        .M      LDR      r5,[pc,#28] ; [0x8000530] = 0x40013c08
        0x08000512:    3d08        .=      SUBS     r5,r5,#8
        0x08000514:    682c        ,h      LDR      r4,[r5,#0]
        0x08000516:    439c        .C      BICS     r4,r4,r3
        0x08000518:    684e        Nh      LDR      r6,[r1,#4]
        0x0800051a:    03f6        ..      LSLS     r6,r6,#15
        0x0800051c:    d500        ..      BPL      0x8000520 ; HAL_GPIO_Init + 376
        0x0800051e:    431c        .C      ORRS     r4,r4,r3
        0x08000520:    602c        ,`      STR      r4,[r5,#0]
        0x08000522:    1c52        R.      ADDS     r2,r2,#1
        0x08000524:    2a10        .*      CMP      r2,#0x10
        0x08000526:    f4ffaf4d    ..M.    BCC      0x80003c4 ; HAL_GPIO_Init + 28
        0x0800052a:    e8bd8ff8    ....    POP      {r3-r11,pc}
    $d
        0x0800052e:    0000        ..      DCW    0
        0x08000530:    40013c08    .<.@    DCD    1073822728
        0x08000534:    40023844    D8.@    DCD    1073887300
        0x08000538:    40013000    .0.@    DCD    1073819648
        0x0800053c:    40020000    ...@    DCD    1073872896
        0x08000540:    40020400    ...@    DCD    1073873920
        0x08000544:    40020800    ...@    DCD    1073874944
        0x08000548:    40020c00    ...@    DCD    1073875968
        0x0800054c:    40021000    ...@    DCD    1073876992
    $t
    i.HAL_GetTick
    HAL_GetTick
        0x08000550:    4801        .H      LDR      r0,[pc,#4] ; [0x8000558] = 0x20000014
        0x08000552:    6880        .h      LDR      r0,[r0,#8]
        0x08000554:    4770        pG      BX       lr
    $d
        0x08000556:    0000        ..      DCW    0
        0x08000558:    20000014    ...     DCD    536870932
    $t
    i.HAL_IncTick
    HAL_IncTick
        0x0800055c:    4802        .H      LDR      r0,[pc,#8] ; [0x8000568] = 0x20000014
        0x0800055e:    6881        .h      LDR      r1,[r0,#8]
        0x08000560:    6842        Bh      LDR      r2,[r0,#4]
        0x08000562:    4411        .D      ADD      r1,r1,r2
        0x08000564:    6081        .`      STR      r1,[r0,#8]
        0x08000566:    4770        pG      BX       lr
    $d
        0x08000568:    20000014    ...     DCD    536870932
    $t
    i.HAL_Init
    HAL_Init
        0x0800056c:    b510        ..      PUSH     {r4,lr}
        0x0800056e:    480b        .H      LDR      r0,[pc,#44] ; [0x800059c] = 0x40023c00
        0x08000570:    6801        .h      LDR      r1,[r0,#0]
        0x08000572:    f4417100    A..q    ORR      r1,r1,#0x200
        0x08000576:    6001        .`      STR      r1,[r0,#0]
        0x08000578:    6801        .h      LDR      r1,[r0,#0]
        0x0800057a:    f4416180    A..a    ORR      r1,r1,#0x400
        0x0800057e:    6001        .`      STR      r1,[r0,#0]
        0x08000580:    6801        .h      LDR      r1,[r0,#0]
        0x08000582:    f4417180    A..q    ORR      r1,r1,#0x100
        0x08000586:    6001        .`      STR      r1,[r0,#0]
        0x08000588:    2003        .       MOVS     r0,#3
        0x0800058a:    f000f899    ....    BL       HAL_NVIC_SetPriorityGrouping ; 0x80006c0
        0x0800058e:    200f        .       MOVS     r0,#0xf
        0x08000590:    f000f806    ....    BL       HAL_InitTick ; 0x80005a0
        0x08000594:    f000f84a    ..J.    BL       HAL_MspInit ; 0x800062c
        0x08000598:    2000        .       MOVS     r0,#0
        0x0800059a:    bd10        ..      POP      {r4,pc}
    $d
        0x0800059c:    40023c00    .<.@    DCD    1073888256
    $t
    i.HAL_InitTick
    HAL_InitTick
        0x080005a0:    b530        0.      PUSH     {r4,r5,lr}
        0x080005a2:    b087        ..      SUB      sp,sp,#0x1c
        0x080005a4:    4605        .F      MOV      r5,r0
        0x080005a6:    2400        .$      MOVS     r4,#0
        0x080005a8:    481b        .H      LDR      r0,[pc,#108] ; [0x8000618] = 0x40023844
        0x080005aa:    6801        .h      LDR      r1,[r0,#0]
        0x080005ac:    f0410101    A...    ORR      r1,r1,#1
        0x080005b0:    6001        .`      STR      r1,[r0,#0]
        0x080005b2:    6800        .h      LDR      r0,[r0,#0]
        0x080005b4:    f0000001    ....    AND      r0,r0,#1
        0x080005b8:    9000        ..      STR      r0,[sp,#0]
        0x080005ba:    a901        ..      ADD      r1,sp,#4
        0x080005bc:    a802        ..      ADD      r0,sp,#8
        0x080005be:    f000f937    ..7.    BL       HAL_RCC_GetClockConfig ; 0x8000830
        0x080005c2:    f000f969    ..i.    BL       HAL_RCC_GetPCLK2Freq ; 0x8000898
        0x080005c6:    4915        .I      LDR      r1,[pc,#84] ; [0x800061c] = 0xf4240
        0x080005c8:    fbb0f1f1    ....    UDIV     r1,r0,r1
        0x080005cc:    1e49        I.      SUBS     r1,r1,#1
        0x080005ce:    4815        .H      LDR      r0,[pc,#84] ; [0x8000624] = 0x200000f4
        0x080005d0:    4a13        .J      LDR      r2,[pc,#76] ; [0x8000620] = 0x40010000
        0x080005d2:    6002        .`      STR      r2,[r0,#0]
        0x080005d4:    f24032e7    @..2    MOV      r2,#0x3e7
        0x080005d8:    60c2        .`      STR      r2,[r0,#0xc]
        0x080005da:    6041        A`      STR      r1,[r0,#4]
        0x080005dc:    6104        .a      STR      r4,[r0,#0x10]
        0x080005de:    6084        .`      STR      r4,[r0,#8]
        0x080005e0:    6184        .a      STR      r4,[r0,#0x18]
        0x080005e2:    f000fb81    ....    BL       HAL_TIM_Base_Init ; 0x8000ce8
        0x080005e6:    4604        .F      MOV      r4,r0
        0x080005e8:    b994        ..      CBNZ     r4,0x8000610 ; HAL_InitTick + 112
        0x080005ea:    480e        .H      LDR      r0,[pc,#56] ; [0x8000624] = 0x200000f4
        0x080005ec:    f000fb9e    ....    BL       HAL_TIM_Base_Start_IT ; 0x8000d2c
        0x080005f0:    4604        .F      MOV      r4,r0
        0x080005f2:    b96c        l.      CBNZ     r4,0x8000610 ; HAL_InitTick + 112
        0x080005f4:    2019        .       MOVS     r0,#0x19
        0x080005f6:    f000f835    ..5.    BL       HAL_NVIC_EnableIRQ ; 0x8000664
        0x080005fa:    2d10        .-      CMP      r5,#0x10
        0x080005fc:    d207        ..      BCS      0x800060e ; HAL_InitTick + 110
        0x080005fe:    2200        ."      MOVS     r2,#0
        0x08000600:    4629        )F      MOV      r1,r5
        0x08000602:    2019        .       MOVS     r0,#0x19
        0x08000604:    f000f83c    ..<.    BL       HAL_NVIC_SetPriority ; 0x8000680
        0x08000608:    4807        .H      LDR      r0,[pc,#28] ; [0x8000628] = 0x20000014
        0x0800060a:    6005        .`      STR      r5,[r0,#0]
        0x0800060c:    e000        ..      B        0x8000610 ; HAL_InitTick + 112
        0x0800060e:    2401        .$      MOVS     r4,#1
        0x08000610:    b007        ..      ADD      sp,sp,#0x1c
        0x08000612:    4620         F      MOV      r0,r4
        0x08000614:    bd30        0.      POP      {r4,r5,pc}
    $d
        0x08000616:    0000        ..      DCW    0
        0x08000618:    40023844    D8.@    DCD    1073887300
        0x0800061c:    000f4240    @B..    DCD    1000000
        0x08000620:    40010000    ...@    DCD    1073807360
        0x08000624:    200000f4    ...     DCD    536871156
        0x08000628:    20000014    ...     DCD    536870932
    $t
    i.HAL_MspInit
    HAL_MspInit
        0x0800062c:    b082        ..      SUB      sp,sp,#8
        0x0800062e:    480c        .H      LDR      r0,[pc,#48] ; [0x8000660] = 0x40023844
        0x08000630:    6801        .h      LDR      r1,[r0,#0]
        0x08000632:    f4414180    A..A    ORR      r1,r1,#0x4000
        0x08000636:    6001        .`      STR      r1,[r0,#0]
        0x08000638:    6800        .h      LDR      r0,[r0,#0]
        0x0800063a:    f4004080    ...@    AND      r0,r0,#0x4000
        0x0800063e:    9001        ..      STR      r0,[sp,#4]
        0x08000640:    4807        .H      LDR      r0,[pc,#28] ; [0x8000660] = 0x40023844
        0x08000642:    1f00        ..      SUBS     r0,r0,#4
        0x08000644:    6801        .h      LDR      r1,[r0,#0]
        0x08000646:    f0415180    A..Q    ORR      r1,r1,#0x10000000
        0x0800064a:    6001        .`      STR      r1,[r0,#0]
        0x0800064c:    6800        .h      LDR      r0,[r0,#0]
        0x0800064e:    f0005080    ...P    AND      r0,r0,#0x10000000
        0x08000652:    9001        ..      STR      r0,[sp,#4]
        0x08000654:    2200        ."      MOVS     r2,#0
        0x08000656:    210f        .!      MOVS     r1,#0xf
        0x08000658:    1e90        ..      SUBS     r0,r2,#2
        0x0800065a:    b002        ..      ADD      sp,sp,#8
        0x0800065c:    f000b810    ....    B.W      HAL_NVIC_SetPriority ; 0x8000680
    $d
        0x08000660:    40023844    D8.@    DCD    1073887300
    $t
    i.HAL_NVIC_EnableIRQ
    HAL_NVIC_EnableIRQ
        0x08000664:    2800        .(      CMP      r0,#0
        0x08000666:    db09        ..      BLT      0x800067c ; HAL_NVIC_EnableIRQ + 24
        0x08000668:    f000021f    ....    AND      r2,r0,#0x1f
        0x0800066c:    2101        .!      MOVS     r1,#1
        0x0800066e:    4091        .@      LSLS     r1,r1,r2
        0x08000670:    0940        @.      LSRS     r0,r0,#5
        0x08000672:    0080        ..      LSLS     r0,r0,#2
        0x08000674:    f10020e0    ...     ADD      r0,r0,#0xe000e000
        0x08000678:    f8c01100    ....    STR      r1,[r0,#0x100]
        0x0800067c:    4770        pG      BX       lr
        0x0800067e:    0000        ..      MOVS     r0,r0
    i.HAL_NVIC_SetPriority
    HAL_NVIC_SetPriority
        0x08000680:    b4f0        ..      PUSH     {r4-r7}
        0x08000682:    460d        .F      MOV      r5,r1
        0x08000684:    4b0d        .K      LDR      r3,[pc,#52] ; [0x80006bc] = 0xe000ed0c
        0x08000686:    681b        .h      LDR      r3,[r3,#0]
        0x08000688:    f3c32302    ...#    UBFX     r3,r3,#8,#3
        0x0800068c:    f1c30407    ....    RSB      r4,r3,#7
        0x08000690:    2c04        .,      CMP      r4,#4
        0x08000692:    d900        ..      BLS      0x8000696 ; HAL_NVIC_SetPriority + 22
        0x08000694:    2404        .$      MOVS     r4,#4
        0x08000696:    1d19        ..      ADDS     r1,r3,#4
        0x08000698:    2907        .)      CMP      r1,#7
        0x0800069a:    d201        ..      BCS      0x80006a0 ; HAL_NVIC_SetPriority + 32
        0x0800069c:    2300        .#      MOVS     r3,#0
        0x0800069e:    e000        ..      B        0x80006a2 ; HAL_NVIC_SetPriority + 34
        0x080006a0:    1edb        ..      SUBS     r3,r3,#3
        0x080006a2:    2601        .&      MOVS     r6,#1
        0x080006a4:    fa06f104    ....    LSL      r1,r6,r4
        0x080006a8:    1e49        I.      SUBS     r1,r1,#1
        0x080006aa:    4029        )@      ANDS     r1,r1,r5
        0x080006ac:    4099        .@      LSLS     r1,r1,r3
        0x080006ae:    409e        .@      LSLS     r6,r6,r3
        0x080006b0:    1e76        v.      SUBS     r6,r6,#1
        0x080006b2:    4016        .@      ANDS     r6,r6,r2
        0x080006b4:    4331        1C      ORRS     r1,r1,r6
        0x080006b6:    bcf0        ..      POP      {r4-r7}
        0x080006b8:    f000bef0    ....    B.W      __NVIC_SetPriority ; 0x800149c
    $d
        0x080006bc:    e000ed0c    ....    DCD    3758157068
    $t
    i.HAL_NVIC_SetPriorityGrouping
    HAL_NVIC_SetPriorityGrouping
        0x080006c0:    f0000107    ....    AND      r1,r0,#7
        0x080006c4:    4a05        .J      LDR      r2,[pc,#20] ; [0x80006dc] = 0xe000ed0c
        0x080006c6:    6810        .h      LDR      r0,[r2,#0]
        0x080006c8:    f64f03ff    O...    MOV      r3,#0xf8ff
        0x080006cc:    4018        .@      ANDS     r0,r0,r3
        0x080006ce:    ea402001    @..     ORR      r0,r0,r1,LSL #8
        0x080006d2:    4903        .I      LDR      r1,[pc,#12] ; [0x80006e0] = 0x5fa0000
        0x080006d4:    4308        .C      ORRS     r0,r0,r1
        0x080006d6:    6010        .`      STR      r0,[r2,#0]
        0x080006d8:    4770        pG      BX       lr
    $d
        0x080006da:    0000        ..      DCW    0
        0x080006dc:    e000ed0c    ....    DCD    3758157068
        0x080006e0:    05fa0000    ....    DCD    100270080
    $t
    i.HAL_RCC_ClockConfig
    HAL_RCC_ClockConfig
        0x080006e4:    e92d47f0    -..G    PUSH     {r4-r10,lr}
        0x080006e8:    4604        .F      MOV      r4,r0
        0x080006ea:    460d        .F      MOV      r5,r1
        0x080006ec:    2c00        .,      CMP      r4,#0
        0x080006ee:    d013        ..      BEQ      0x8000718 ; HAL_RCC_ClockConfig + 52
        0x080006f0:    f8df9128    ..(.    LDR      r9,[pc,#296] ; [0x800081c] = 0x40023c00
        0x080006f4:    f8d90000    ....    LDR      r0,[r9,#0]
        0x080006f8:    b2ef        ..      UXTB     r7,r5
        0x080006fa:    f0000007    ....    AND      r0,r0,#7
        0x080006fe:    42a8        .B      CMP      r0,r5
        0x08000700:    d20c        ..      BCS      0x800071c ; HAL_RCC_ClockConfig + 56
        0x08000702:    f8897000    ...p    STRB     r7,[r9,#0]
        0x08000706:    f8d90000    ....    LDR      r0,[r9,#0]
        0x0800070a:    f0000007    ....    AND      r0,r0,#7
        0x0800070e:    42a8        .B      CMP      r0,r5
        0x08000710:    d004        ..      BEQ      0x800071c ; HAL_RCC_ClockConfig + 56
        0x08000712:    2001        .       MOVS     r0,#1
        0x08000714:    e8bd87f0    ....    POP      {r4-r10,pc}
        0x08000718:    2001        .       MOVS     r0,#1
        0x0800071a:    e7fb        ..      B        0x8000714 ; HAL_RCC_ClockConfig + 48
        0x0800071c:    6820         h      LDR      r0,[r4,#0]
        0x0800071e:    4e40        @N      LDR      r6,[pc,#256] ; [0x8000820] = 0x40023808
        0x08000720:    0781        ..      LSLS     r1,r0,#30
        0x08000722:    d512        ..      BPL      0x800074a ; HAL_RCC_ClockConfig + 102
        0x08000724:    0740        @.      LSLS     r0,r0,#29
        0x08000726:    d503        ..      BPL      0x8000730 ; HAL_RCC_ClockConfig + 76
        0x08000728:    6830        0h      LDR      r0,[r6,#0]
        0x0800072a:    f44050e0    @..P    ORR      r0,r0,#0x1c00
        0x0800072e:    6030        0`      STR      r0,[r6,#0]
        0x08000730:    7820         x      LDRB     r0,[r4,#0]
        0x08000732:    0700        ..      LSLS     r0,r0,#28
        0x08000734:    d503        ..      BPL      0x800073e ; HAL_RCC_ClockConfig + 90
        0x08000736:    6830        0h      LDR      r0,[r6,#0]
        0x08000738:    f4404060    @.`@    ORR      r0,r0,#0xe000
        0x0800073c:    6030        0`      STR      r0,[r6,#0]
        0x0800073e:    6830        0h      LDR      r0,[r6,#0]
        0x08000740:    68a1        .h      LDR      r1,[r4,#8]
        0x08000742:    f02000f0     ...    BIC      r0,r0,#0xf0
        0x08000746:    4308        .C      ORRS     r0,r0,r1
        0x08000748:    6030        0`      STR      r0,[r6,#0]
        0x0800074a:    7820         x      LDRB     r0,[r4,#0]
        0x0800074c:    07c0        ..      LSLS     r0,r0,#31
        0x0800074e:    d031        1.      BEQ      0x80007b4 ; HAL_RCC_ClockConfig + 208
        0x08000750:    4933        3I      LDR      r1,[pc,#204] ; [0x8000820] = 0x40023808
        0x08000752:    6860        `h      LDR      r0,[r4,#4]
        0x08000754:    3908        .9      SUBS     r1,r1,#8
        0x08000756:    2801        .(      CMP      r0,#1
        0x08000758:    d008        ..      BEQ      0x800076c ; HAL_RCC_ClockConfig + 136
        0x0800075a:    2802        .(      CMP      r0,#2
        0x0800075c:    d00b        ..      BEQ      0x8000776 ; HAL_RCC_ClockConfig + 146
        0x0800075e:    2803        .(      CMP      r0,#3
        0x08000760:    d009        ..      BEQ      0x8000776 ; HAL_RCC_ClockConfig + 146
        0x08000762:    6809        .h      LDR      r1,[r1,#0]
        0x08000764:    0789        ..      LSLS     r1,r1,#30
        0x08000766:    d40b        ..      BMI      0x8000780 ; HAL_RCC_ClockConfig + 156
        0x08000768:    2001        .       MOVS     r0,#1
        0x0800076a:    e7d3        ..      B        0x8000714 ; HAL_RCC_ClockConfig + 48
        0x0800076c:    6809        .h      LDR      r1,[r1,#0]
        0x0800076e:    0389        ..      LSLS     r1,r1,#14
        0x08000770:    d406        ..      BMI      0x8000780 ; HAL_RCC_ClockConfig + 156
        0x08000772:    2001        .       MOVS     r0,#1
        0x08000774:    e7ce        ..      B        0x8000714 ; HAL_RCC_ClockConfig + 48
        0x08000776:    6809        .h      LDR      r1,[r1,#0]
        0x08000778:    0189        ..      LSLS     r1,r1,#6
        0x0800077a:    d401        ..      BMI      0x8000780 ; HAL_RCC_ClockConfig + 156
        0x0800077c:    2001        .       MOVS     r0,#1
        0x0800077e:    e7c9        ..      B        0x8000714 ; HAL_RCC_ClockConfig + 48
        0x08000780:    6831        1h      LDR      r1,[r6,#0]
        0x08000782:    f0210103    !...    BIC      r1,r1,#3
        0x08000786:    4301        .C      ORRS     r1,r1,r0
        0x08000788:    6031        1`      STR      r1,[r6,#0]
        0x0800078a:    f7fffee1    ....    BL       HAL_GetTick ; 0x8000550
        0x0800078e:    4680        .F      MOV      r8,r0
        0x08000790:    f2413a88    A..:    MOV      r10,#0x1388
        0x08000794:    e007        ..      B        0x80007a6 ; HAL_RCC_ClockConfig + 194
        0x08000796:    f7fffedb    ....    BL       HAL_GetTick ; 0x8000550
        0x0800079a:    eba00008    ....    SUB      r0,r0,r8
        0x0800079e:    4550        PE      CMP      r0,r10
        0x080007a0:    d901        ..      BLS      0x80007a6 ; HAL_RCC_ClockConfig + 194
        0x080007a2:    2003        .       MOVS     r0,#3
        0x080007a4:    e7b6        ..      B        0x8000714 ; HAL_RCC_ClockConfig + 48
        0x080007a6:    6830        0h      LDR      r0,[r6,#0]
        0x080007a8:    6861        ah      LDR      r1,[r4,#4]
        0x080007aa:    f000000c    ....    AND      r0,r0,#0xc
        0x080007ae:    ebb00f81    ....    CMP      r0,r1,LSL #2
        0x080007b2:    d1f0        ..      BNE      0x8000796 ; HAL_RCC_ClockConfig + 178
        0x080007b4:    f8d90000    ....    LDR      r0,[r9,#0]
        0x080007b8:    f0000007    ....    AND      r0,r0,#7
        0x080007bc:    42a8        .B      CMP      r0,r5
        0x080007be:    d909        ..      BLS      0x80007d4 ; HAL_RCC_ClockConfig + 240
        0x080007c0:    f8897000    ...p    STRB     r7,[r9,#0]
        0x080007c4:    f8d90000    ....    LDR      r0,[r9,#0]
        0x080007c8:    f0000007    ....    AND      r0,r0,#7
        0x080007cc:    42a8        .B      CMP      r0,r5
        0x080007ce:    d001        ..      BEQ      0x80007d4 ; HAL_RCC_ClockConfig + 240
        0x080007d0:    2001        .       MOVS     r0,#1
        0x080007d2:    e79f        ..      B        0x8000714 ; HAL_RCC_ClockConfig + 48
        0x080007d4:    7820         x      LDRB     r0,[r4,#0]
        0x080007d6:    0740        @.      LSLS     r0,r0,#29
        0x080007d8:    d505        ..      BPL      0x80007e6 ; HAL_RCC_ClockConfig + 258
        0x080007da:    6830        0h      LDR      r0,[r6,#0]
        0x080007dc:    68e1        .h      LDR      r1,[r4,#0xc]
        0x080007de:    f42050e0     ..P    BIC      r0,r0,#0x1c00
        0x080007e2:    4308        .C      ORRS     r0,r0,r1
        0x080007e4:    6030        0`      STR      r0,[r6,#0]
        0x080007e6:    7820         x      LDRB     r0,[r4,#0]
        0x080007e8:    0700        ..      LSLS     r0,r0,#28
        0x080007ea:    d506        ..      BPL      0x80007fa ; HAL_RCC_ClockConfig + 278
        0x080007ec:    6830        0h      LDR      r0,[r6,#0]
        0x080007ee:    6921        !i      LDR      r1,[r4,#0x10]
        0x080007f0:    f4204060     .`@    BIC      r0,r0,#0xe000
        0x080007f4:    ea4000c1    @...    ORR      r0,r0,r1,LSL #3
        0x080007f8:    6030        0`      STR      r0,[r6,#0]
        0x080007fa:    f000f85d    ..].    BL       HAL_RCC_GetSysClockFreq ; 0x80008b8
        0x080007fe:    6831        1h      LDR      r1,[r6,#0]
        0x08000800:    4a08        .J      LDR      r2,[pc,#32] ; [0x8000824] = 0x80031e8
        0x08000802:    f3c11103    ....    UBFX     r1,r1,#4,#4
        0x08000806:    5c51        Q\      LDRB     r1,[r2,r1]
        0x08000808:    40c8        .@      LSRS     r0,r0,r1
        0x0800080a:    4907        .I      LDR      r1,[pc,#28] ; [0x8000828] = 0x20000020
        0x0800080c:    6008        .`      STR      r0,[r1,#0]
        0x0800080e:    4807        .H      LDR      r0,[pc,#28] ; [0x800082c] = 0x20000014
        0x08000810:    6800        .h      LDR      r0,[r0,#0]
        0x08000812:    f7fffec5    ....    BL       HAL_InitTick ; 0x80005a0
        0x08000816:    2000        .       MOVS     r0,#0
        0x08000818:    e77c        |.      B        0x8000714 ; HAL_RCC_ClockConfig + 48
    $d
        0x0800081a:    0000        ..      DCW    0
        0x0800081c:    40023c00    .<.@    DCD    1073888256
        0x08000820:    40023808    .8.@    DCD    1073887240
        0x08000824:    080031e8    .1..    DCD    134230504
        0x08000828:    20000020     ..     DCD    536870944
        0x0800082c:    20000014    ...     DCD    536870932
    $t
    i.HAL_RCC_GetClockConfig
    HAL_RCC_GetClockConfig
        0x08000830:    220f        ."      MOVS     r2,#0xf
        0x08000832:    6002        .`      STR      r2,[r0,#0]
        0x08000834:    4a0b        .J      LDR      r2,[pc,#44] ; [0x8000864] = 0x40023808
        0x08000836:    6813        .h      LDR      r3,[r2,#0]
        0x08000838:    f0030303    ....    AND      r3,r3,#3
        0x0800083c:    6043        C`      STR      r3,[r0,#4]
        0x0800083e:    6813        .h      LDR      r3,[r2,#0]
        0x08000840:    f00303f0    ....    AND      r3,r3,#0xf0
        0x08000844:    6083        .`      STR      r3,[r0,#8]
        0x08000846:    6813        .h      LDR      r3,[r2,#0]
        0x08000848:    f40353e0    ...S    AND      r3,r3,#0x1c00
        0x0800084c:    60c3        .`      STR      r3,[r0,#0xc]
        0x0800084e:    6812        .h      LDR      r2,[r2,#0]
        0x08000850:    f4024260    ..`B    AND      r2,r2,#0xe000
        0x08000854:    08d2        ..      LSRS     r2,r2,#3
        0x08000856:    6102        .a      STR      r2,[r0,#0x10]
        0x08000858:    4803        .H      LDR      r0,[pc,#12] ; [0x8000868] = 0x40023c00
        0x0800085a:    6800        .h      LDR      r0,[r0,#0]
        0x0800085c:    f0000007    ....    AND      r0,r0,#7
        0x08000860:    6008        .`      STR      r0,[r1,#0]
        0x08000862:    4770        pG      BX       lr
    $d
        0x08000864:    40023808    .8.@    DCD    1073887240
        0x08000868:    40023c00    .<.@    DCD    1073888256
    $t
    i.HAL_RCC_GetHCLKFreq
    HAL_RCC_GetHCLKFreq
        0x0800086c:    4801        .H      LDR      r0,[pc,#4] ; [0x8000874] = 0x20000020
        0x0800086e:    6800        .h      LDR      r0,[r0,#0]
        0x08000870:    4770        pG      BX       lr
    $d
        0x08000872:    0000        ..      DCW    0
        0x08000874:    20000020     ..     DCD    536870944
    $t
    i.HAL_RCC_GetPCLK1Freq
    HAL_RCC_GetPCLK1Freq
        0x08000878:    b500        ..      PUSH     {lr}
        0x0800087a:    f7fffff7    ....    BL       HAL_RCC_GetHCLKFreq ; 0x800086c
        0x0800087e:    4904        .I      LDR      r1,[pc,#16] ; [0x8000890] = 0x40023808
        0x08000880:    6809        .h      LDR      r1,[r1,#0]
        0x08000882:    4a04        .J      LDR      r2,[pc,#16] ; [0x8000894] = 0x80031f8
        0x08000884:    f3c12182    ...!    UBFX     r1,r1,#10,#3
        0x08000888:    5c51        Q\      LDRB     r1,[r2,r1]
        0x0800088a:    40c8        .@      LSRS     r0,r0,r1
        0x0800088c:    bd00        ..      POP      {pc}
    $d
        0x0800088e:    0000        ..      DCW    0
        0x08000890:    40023808    .8.@    DCD    1073887240
        0x08000894:    080031f8    .1..    DCD    134230520
    $t
    i.HAL_RCC_GetPCLK2Freq
    HAL_RCC_GetPCLK2Freq
        0x08000898:    b500        ..      PUSH     {lr}
        0x0800089a:    f7ffffe7    ....    BL       HAL_RCC_GetHCLKFreq ; 0x800086c
        0x0800089e:    4904        .I      LDR      r1,[pc,#16] ; [0x80008b0] = 0x40023808
        0x080008a0:    6809        .h      LDR      r1,[r1,#0]
        0x080008a2:    4a04        .J      LDR      r2,[pc,#16] ; [0x80008b4] = 0x80031f8
        0x080008a4:    f3c13142    ..B1    UBFX     r1,r1,#13,#3
        0x080008a8:    5c51        Q\      LDRB     r1,[r2,r1]
        0x080008aa:    40c8        .@      LSRS     r0,r0,r1
        0x080008ac:    bd00        ..      POP      {pc}
    $d
        0x080008ae:    0000        ..      DCW    0
        0x080008b0:    40023808    .8.@    DCD    1073887240
        0x080008b4:    080031f8    .1..    DCD    134230520
    $t
    i.HAL_RCC_GetSysClockFreq
    HAL_RCC_GetSysClockFreq
        0x080008b8:    b510        ..      PUSH     {r4,lr}
        0x080008ba:    4817        .H      LDR      r0,[pc,#92] ; [0x8000918] = 0x40023808
        0x080008bc:    6800        .h      LDR      r0,[r0,#0]
        0x080008be:    f010010c    ....    ANDS     r1,r0,#0xc
        0x080008c2:    4816        .H      LDR      r0,[pc,#88] ; [0x800091c] = 0xf42400
        0x080008c4:    d016        ..      BEQ      0x80008f4 ; HAL_RCC_GetSysClockFreq + 60
        0x080008c6:    4b16        .K      LDR      r3,[pc,#88] ; [0x8000920] = 0x17d7840
        0x080008c8:    2904        .)      CMP      r1,#4
        0x080008ca:    d012        ..      BEQ      0x80008f2 ; HAL_RCC_GetSysClockFreq + 58
        0x080008cc:    2908        .)      CMP      r1,#8
        0x080008ce:    d111        ..      BNE      0x80008f4 ; HAL_RCC_GetSysClockFreq + 60
        0x080008d0:    4c11        .L      LDR      r4,[pc,#68] ; [0x8000918] = 0x40023808
        0x080008d2:    1f24        $.      SUBS     r4,r4,#4
        0x080008d4:    6821        !h      LDR      r1,[r4,#0]
        0x080008d6:    f001023f    ..?.    AND      r2,r1,#0x3f
        0x080008da:    6821        !h      LDR      r1,[r4,#0]
        0x080008dc:    0249        I.      LSLS     r1,r1,#9
        0x080008de:    d50a        ..      BPL      0x80008f6 ; HAL_RCC_GetSysClockFreq + 62
        0x080008e0:    6820         h      LDR      r0,[r4,#0]
        0x080008e2:    f3c01088    ....    UBFX     r0,r0,#6,#9
        0x080008e6:    fba00103    ....    UMULL    r0,r1,r0,r3
        0x080008ea:    2300        .#      MOVS     r3,#0
        0x080008ec:    f7fffcd2    ....    BL       __aeabi_uldivmod ; 0x8000294
        0x080008f0:    e009        ..      B        0x8000906 ; HAL_RCC_GetSysClockFreq + 78
        0x080008f2:    4618        .F      MOV      r0,r3
        0x080008f4:    bd10        ..      POP      {r4,pc}
        0x080008f6:    6821        !h      LDR      r1,[r4,#0]
        0x080008f8:    2300        .#      MOVS     r3,#0
        0x080008fa:    f3c11188    ....    UBFX     r1,r1,#6,#9
        0x080008fe:    fba10100    ....    UMULL    r0,r1,r1,r0
        0x08000902:    f7fffcc7    ....    BL       __aeabi_uldivmod ; 0x8000294
        0x08000906:    6821        !h      LDR      r1,[r4,#0]
        0x08000908:    f3c14101    ...A    UBFX     r1,r1,#16,#2
        0x0800090c:    1c49        I.      ADDS     r1,r1,#1
        0x0800090e:    0049        I.      LSLS     r1,r1,#1
        0x08000910:    fbb0f0f1    ....    UDIV     r0,r0,r1
        0x08000914:    bd10        ..      POP      {r4,pc}
    $d
        0x08000916:    0000        ..      DCW    0
        0x08000918:    40023808    .8.@    DCD    1073887240
        0x0800091c:    00f42400    .$..    DCD    16000000
        0x08000920:    017d7840    @x}.    DCD    25000000
    $t
    i.HAL_RCC_OscConfig
    HAL_RCC_OscConfig
        0x08000924:    e92d4ff8    -..O    PUSH     {r3-r11,lr}
        0x08000928:    4604        .F      MOV      r4,r0
        0x0800092a:    2c00        .,      CMP      r4,#0
        0x0800092c:    d013        ..      BEQ      0x8000956 ; HAL_RCC_OscConfig + 50
        0x0800092e:    7820         x      LDRB     r0,[r4,#0]
        0x08000930:    f8df83a0    ....    LDR      r8,[pc,#928] ; [0x8000cd4] = 0x40023804
        0x08000934:    07c0        ..      LSLS     r0,r0,#31
        0x08000936:    f1a80504    ....    SUB      r5,r8,#4
        0x0800093a:    d056        V.      BEQ      0x80009ea ; HAL_RCC_OscConfig + 198
        0x0800093c:    f1080004    ....    ADD      r0,r8,#4
        0x08000940:    6801        .h      LDR      r1,[r0,#0]
        0x08000942:    f3c10181    ....    UBFX     r1,r1,#2,#2
        0x08000946:    2901        .)      CMP      r1,#1
        0x08000948:    d00c        ..      BEQ      0x8000964 ; HAL_RCC_OscConfig + 64
        0x0800094a:    6800        .h      LDR      r0,[r0,#0]
        0x0800094c:    f3c00081    ....    UBFX     r0,r0,#2,#2
        0x08000950:    2802        .(      CMP      r0,#2
        0x08000952:    d003        ..      BEQ      0x800095c ; HAL_RCC_OscConfig + 56
        0x08000954:    e00d        ..      B        0x8000972 ; HAL_RCC_OscConfig + 78
        0x08000956:    2001        .       MOVS     r0,#1
        0x08000958:    e8bd8ff8    ....    POP      {r3-r11,pc}
        0x0800095c:    f8d80000    ....    LDR      r0,[r8,#0]
        0x08000960:    0240        @.      LSLS     r0,r0,#9
        0x08000962:    d506        ..      BPL      0x8000972 ; HAL_RCC_OscConfig + 78
        0x08000964:    6828        (h      LDR      r0,[r5,#0]
        0x08000966:    0380        ..      LSLS     r0,r0,#14
        0x08000968:    d53f        ?.      BPL      0x80009ea ; HAL_RCC_OscConfig + 198
        0x0800096a:    6860        `h      LDR      r0,[r4,#4]
        0x0800096c:    bb70        p.      CBNZ     r0,0x80009cc ; HAL_RCC_OscConfig + 168
        0x0800096e:    2001        .       MOVS     r0,#1
        0x08000970:    e7f2        ..      B        0x8000958 ; HAL_RCC_OscConfig + 52
        0x08000972:    6860        `h      LDR      r0,[r4,#4]
        0x08000974:    f5b03f80    ...?    CMP      r0,#0x10000
        0x08000978:    d010        ..      BEQ      0x800099c ; HAL_RCC_OscConfig + 120
        0x0800097a:    f5b02fa0    .../    CMP      r0,#0x50000
        0x0800097e:    d012        ..      BEQ      0x80009a6 ; HAL_RCC_OscConfig + 130
        0x08000980:    6828        (h      LDR      r0,[r5,#0]
        0x08000982:    f4203080     ..0    BIC      r0,r0,#0x10000
        0x08000986:    6028        (`      STR      r0,[r5,#0]
        0x08000988:    6828        (h      LDR      r0,[r5,#0]
        0x0800098a:    f4202080     ..     BIC      r0,r0,#0x40000
        0x0800098e:    6028        (`      STR      r0,[r5,#0]
        0x08000990:    6860        `h      LDR      r0,[r4,#4]
        0x08000992:    b1e0        ..      CBZ      r0,0x80009ce ; HAL_RCC_OscConfig + 170
        0x08000994:    f7fffddc    ....    BL       HAL_GetTick ; 0x8000550
        0x08000998:    4606        .F      MOV      r6,r0
        0x0800099a:    e014        ..      B        0x80009c6 ; HAL_RCC_OscConfig + 162
        0x0800099c:    6828        (h      LDR      r0,[r5,#0]
        0x0800099e:    f4403080    @..0    ORR      r0,r0,#0x10000
        0x080009a2:    6028        (`      STR      r0,[r5,#0]
        0x080009a4:    e7f4        ..      B        0x8000990 ; HAL_RCC_OscConfig + 108
        0x080009a6:    6828        (h      LDR      r0,[r5,#0]
        0x080009a8:    f4402080    @..     ORR      r0,r0,#0x40000
        0x080009ac:    6028        (`      STR      r0,[r5,#0]
        0x080009ae:    6828        (h      LDR      r0,[r5,#0]
        0x080009b0:    f4403080    @..0    ORR      r0,r0,#0x10000
        0x080009b4:    6028        (`      STR      r0,[r5,#0]
        0x080009b6:    e7eb        ..      B        0x8000990 ; HAL_RCC_OscConfig + 108
        0x080009b8:    f7fffdca    ....    BL       HAL_GetTick ; 0x8000550
        0x080009bc:    1b80        ..      SUBS     r0,r0,r6
        0x080009be:    2864        d(      CMP      r0,#0x64
        0x080009c0:    d901        ..      BLS      0x80009c6 ; HAL_RCC_OscConfig + 162
        0x080009c2:    2003        .       MOVS     r0,#3
        0x080009c4:    e7c8        ..      B        0x8000958 ; HAL_RCC_OscConfig + 52
        0x080009c6:    6828        (h      LDR      r0,[r5,#0]
        0x080009c8:    0380        ..      LSLS     r0,r0,#14
        0x080009ca:    d5f5        ..      BPL      0x80009b8 ; HAL_RCC_OscConfig + 148
        0x080009cc:    e00d        ..      B        0x80009ea ; HAL_RCC_OscConfig + 198
        0x080009ce:    f7fffdbf    ....    BL       HAL_GetTick ; 0x8000550
        0x080009d2:    4606        .F      MOV      r6,r0
        0x080009d4:    e006        ..      B        0x80009e4 ; HAL_RCC_OscConfig + 192
        0x080009d6:    f7fffdbb    ....    BL       HAL_GetTick ; 0x8000550
        0x080009da:    1b80        ..      SUBS     r0,r0,r6
        0x080009dc:    2864        d(      CMP      r0,#0x64
        0x080009de:    d901        ..      BLS      0x80009e4 ; HAL_RCC_OscConfig + 192
        0x080009e0:    2003        .       MOVS     r0,#3
        0x080009e2:    e7b9        ..      B        0x8000958 ; HAL_RCC_OscConfig + 52
        0x080009e4:    6828        (h      LDR      r0,[r5,#0]
        0x080009e6:    0380        ..      LSLS     r0,r0,#14
        0x080009e8:    d4f5        ..      BMI      0x80009d6 ; HAL_RCC_OscConfig + 178
        0x080009ea:    7820         x      LDRB     r0,[r4,#0]
        0x080009ec:    4fba        .O      LDR      r7,[pc,#744] ; [0x8000cd8] = 0x42470000
        0x080009ee:    0780        ..      LSLS     r0,r0,#30
        0x080009f0:    f04f0900    O...    MOV      r9,#0
        0x080009f4:    d548        H.      BPL      0x8000a88 ; HAL_RCC_OscConfig + 356
        0x080009f6:    48b7        .H      LDR      r0,[pc,#732] ; [0x8000cd4] = 0x40023804
        0x080009f8:    1d00        ..      ADDS     r0,r0,#4
        0x080009fa:    6801        .h      LDR      r1,[r0,#0]
        0x080009fc:    f0110f0c    ....    TST      r1,#0xc
        0x08000a00:    d008        ..      BEQ      0x8000a14 ; HAL_RCC_OscConfig + 240
        0x08000a02:    6800        .h      LDR      r0,[r0,#0]
        0x08000a04:    f3c00081    ....    UBFX     r0,r0,#2,#2
        0x08000a08:    2802        .(      CMP      r0,#2
        0x08000a0a:    d113        ..      BNE      0x8000a34 ; HAL_RCC_OscConfig + 272
        0x08000a0c:    f8d80000    ....    LDR      r0,[r8,#0]
        0x08000a10:    0240        @.      LSLS     r0,r0,#9
        0x08000a12:    d40f        ..      BMI      0x8000a34 ; HAL_RCC_OscConfig + 272
        0x08000a14:    6828        (h      LDR      r0,[r5,#0]
        0x08000a16:    0780        ..      LSLS     r0,r0,#30
        0x08000a18:    d504        ..      BPL      0x8000a24 ; HAL_RCC_OscConfig + 256
        0x08000a1a:    68e0        .h      LDR      r0,[r4,#0xc]
        0x08000a1c:    2801        .(      CMP      r0,#1
        0x08000a1e:    d001        ..      BEQ      0x8000a24 ; HAL_RCC_OscConfig + 256
        0x08000a20:    2001        .       MOVS     r0,#1
        0x08000a22:    e799        ..      B        0x8000958 ; HAL_RCC_OscConfig + 52
        0x08000a24:    6828        (h      LDR      r0,[r5,#0]
        0x08000a26:    6921        !i      LDR      r1,[r4,#0x10]
        0x08000a28:    f02000f8     ...    BIC      r0,r0,#0xf8
        0x08000a2c:    ea4000c1    @...    ORR      r0,r0,r1,LSL #3
        0x08000a30:    6028        (`      STR      r0,[r5,#0]
        0x08000a32:    e029        ).      B        0x8000a88 ; HAL_RCC_OscConfig + 356
        0x08000a34:    68e0        .h      LDR      r0,[r4,#0xc]
        0x08000a36:    b1b8        ..      CBZ      r0,0x8000a68 ; HAL_RCC_OscConfig + 324
        0x08000a38:    2001        .       MOVS     r0,#1
        0x08000a3a:    6038        8`      STR      r0,[r7,#0]
        0x08000a3c:    f7fffd88    ....    BL       HAL_GetTick ; 0x8000550
        0x08000a40:    4606        .F      MOV      r6,r0
        0x08000a42:    e006        ..      B        0x8000a52 ; HAL_RCC_OscConfig + 302
        0x08000a44:    f7fffd84    ....    BL       HAL_GetTick ; 0x8000550
        0x08000a48:    1b80        ..      SUBS     r0,r0,r6
        0x08000a4a:    2802        .(      CMP      r0,#2
        0x08000a4c:    d901        ..      BLS      0x8000a52 ; HAL_RCC_OscConfig + 302
        0x08000a4e:    2003        .       MOVS     r0,#3
        0x08000a50:    e782        ..      B        0x8000958 ; HAL_RCC_OscConfig + 52
        0x08000a52:    6828        (h      LDR      r0,[r5,#0]
        0x08000a54:    0780        ..      LSLS     r0,r0,#30
        0x08000a56:    d5f5        ..      BPL      0x8000a44 ; HAL_RCC_OscConfig + 288
        0x08000a58:    6828        (h      LDR      r0,[r5,#0]
        0x08000a5a:    6921        !i      LDR      r1,[r4,#0x10]
        0x08000a5c:    f02000f8     ...    BIC      r0,r0,#0xf8
        0x08000a60:    ea4000c1    @...    ORR      r0,r0,r1,LSL #3
        0x08000a64:    6028        (`      STR      r0,[r5,#0]
        0x08000a66:    e00f        ..      B        0x8000a88 ; HAL_RCC_OscConfig + 356
        0x08000a68:    f8c79000    ....    STR      r9,[r7,#0]
        0x08000a6c:    f7fffd70    ..p.    BL       HAL_GetTick ; 0x8000550
        0x08000a70:    4606        .F      MOV      r6,r0
        0x08000a72:    e006        ..      B        0x8000a82 ; HAL_RCC_OscConfig + 350
        0x08000a74:    f7fffd6c    ..l.    BL       HAL_GetTick ; 0x8000550
        0x08000a78:    1b80        ..      SUBS     r0,r0,r6
        0x08000a7a:    2802        .(      CMP      r0,#2
        0x08000a7c:    d901        ..      BLS      0x8000a82 ; HAL_RCC_OscConfig + 350
        0x08000a7e:    2003        .       MOVS     r0,#3
        0x08000a80:    e76a        j.      B        0x8000958 ; HAL_RCC_OscConfig + 52
        0x08000a82:    6828        (h      LDR      r0,[r5,#0]
        0x08000a84:    0780        ..      LSLS     r0,r0,#30
        0x08000a86:    d4f5        ..      BMI      0x8000a74 ; HAL_RCC_OscConfig + 336
        0x08000a88:    7820         x      LDRB     r0,[r4,#0]
        0x08000a8a:    0700        ..      LSLS     r0,r0,#28
        0x08000a8c:    d529        ).      BPL      0x8000ae2 ; HAL_RCC_OscConfig + 446
        0x08000a8e:    f8dfa244    ..D.    LDR      r10,[pc,#580] ; [0x8000cd4] = 0x40023804
        0x08000a92:    4892        .H      LDR      r0,[pc,#584] ; [0x8000cdc] = 0x42470e80
        0x08000a94:    6961        ai      LDR      r1,[r4,#0x14]
        0x08000a96:    f10a0a70    ..p.    ADD      r10,r10,#0x70
        0x08000a9a:    b189        ..      CBZ      r1,0x8000ac0 ; HAL_RCC_OscConfig + 412
        0x08000a9c:    2101        .!      MOVS     r1,#1
        0x08000a9e:    6001        .`      STR      r1,[r0,#0]
        0x08000aa0:    f7fffd56    ..V.    BL       HAL_GetTick ; 0x8000550
        0x08000aa4:    4606        .F      MOV      r6,r0
        0x08000aa6:    e006        ..      B        0x8000ab6 ; HAL_RCC_OscConfig + 402
        0x08000aa8:    f7fffd52    ..R.    BL       HAL_GetTick ; 0x8000550
        0x08000aac:    1b80        ..      SUBS     r0,r0,r6
        0x08000aae:    2802        .(      CMP      r0,#2
        0x08000ab0:    d901        ..      BLS      0x8000ab6 ; HAL_RCC_OscConfig + 402
        0x08000ab2:    2003        .       MOVS     r0,#3
        0x08000ab4:    e750        P.      B        0x8000958 ; HAL_RCC_OscConfig + 52
        0x08000ab6:    f8da0000    ....    LDR      r0,[r10,#0]
        0x08000aba:    0780        ..      LSLS     r0,r0,#30
        0x08000abc:    d5f4        ..      BPL      0x8000aa8 ; HAL_RCC_OscConfig + 388
        0x08000abe:    e010        ..      B        0x8000ae2 ; HAL_RCC_OscConfig + 446
        0x08000ac0:    f8c09000    ....    STR      r9,[r0,#0]
        0x08000ac4:    f7fffd44    ..D.    BL       HAL_GetTick ; 0x8000550
        0x08000ac8:    4606        .F      MOV      r6,r0
        0x08000aca:    e006        ..      B        0x8000ada ; HAL_RCC_OscConfig + 438
        0x08000acc:    f7fffd40    ..@.    BL       HAL_GetTick ; 0x8000550
        0x08000ad0:    1b80        ..      SUBS     r0,r0,r6
        0x08000ad2:    2802        .(      CMP      r0,#2
        0x08000ad4:    d901        ..      BLS      0x8000ada ; HAL_RCC_OscConfig + 438
        0x08000ad6:    2003        .       MOVS     r0,#3
        0x08000ad8:    e73e        >.      B        0x8000958 ; HAL_RCC_OscConfig + 52
        0x08000ada:    f8da0000    ....    LDR      r0,[r10,#0]
        0x08000ade:    0780        ..      LSLS     r0,r0,#30
        0x08000ae0:    d4f4        ..      BMI      0x8000acc ; HAL_RCC_OscConfig + 424
        0x08000ae2:    7820         x      LDRB     r0,[r4,#0]
        0x08000ae4:    0740        @.      LSLS     r0,r0,#29
        0x08000ae6:    d578        x.      BPL      0x8000bda ; HAL_RCC_OscConfig + 694
        0x08000ae8:    f04f0a00    O...    MOV      r10,#0
        0x08000aec:    4879        yH      LDR      r0,[pc,#484] ; [0x8000cd4] = 0x40023804
        0x08000aee:    303c        <0      ADDS     r0,r0,#0x3c
        0x08000af0:    6800        .h      LDR      r0,[r0,#0]
        0x08000af2:    00c0        ..      LSLS     r0,r0,#3
        0x08000af4:    d40b        ..      BMI      0x8000b0e ; HAL_RCC_OscConfig + 490
        0x08000af6:    4877        wH      LDR      r0,[pc,#476] ; [0x8000cd4] = 0x40023804
        0x08000af8:    303c        <0      ADDS     r0,r0,#0x3c
        0x08000afa:    6801        .h      LDR      r1,[r0,#0]
        0x08000afc:    f0415180    A..Q    ORR      r1,r1,#0x10000000
        0x08000b00:    6001        .`      STR      r1,[r0,#0]
        0x08000b02:    6800        .h      LDR      r0,[r0,#0]
        0x08000b04:    f0005080    ...P    AND      r0,r0,#0x10000000
        0x08000b08:    9000        ..      STR      r0,[sp,#0]
        0x08000b0a:    f04f0a01    O...    MOV      r10,#1
        0x08000b0e:    f8dfb1d0    ....    LDR      r11,[pc,#464] ; [0x8000ce0] = 0x40007000
        0x08000b12:    f8db0000    ....    LDR      r0,[r11,#0]
        0x08000b16:    05c0        ..      LSLS     r0,r0,#23
        0x08000b18:    d414        ..      BMI      0x8000b44 ; HAL_RCC_OscConfig + 544
        0x08000b1a:    f8db0000    ....    LDR      r0,[r11,#0]
        0x08000b1e:    f4407080    @..p    ORR      r0,r0,#0x100
        0x08000b22:    f8cb0000    ....    STR      r0,[r11,#0]
        0x08000b26:    f7fffd13    ....    BL       HAL_GetTick ; 0x8000550
        0x08000b2a:    4606        .F      MOV      r6,r0
        0x08000b2c:    e006        ..      B        0x8000b3c ; HAL_RCC_OscConfig + 536
        0x08000b2e:    f7fffd0f    ....    BL       HAL_GetTick ; 0x8000550
        0x08000b32:    1b80        ..      SUBS     r0,r0,r6
        0x08000b34:    2802        .(      CMP      r0,#2
        0x08000b36:    d901        ..      BLS      0x8000b3c ; HAL_RCC_OscConfig + 536
        0x08000b38:    2003        .       MOVS     r0,#3
        0x08000b3a:    e70d        ..      B        0x8000958 ; HAL_RCC_OscConfig + 52
        0x08000b3c:    f8db0000    ....    LDR      r0,[r11,#0]
        0x08000b40:    05c0        ..      LSLS     r0,r0,#23
        0x08000b42:    d5f4        ..      BPL      0x8000b2e ; HAL_RCC_OscConfig + 522
        0x08000b44:    4e63        cN      LDR      r6,[pc,#396] ; [0x8000cd4] = 0x40023804
        0x08000b46:    68a0        .h      LDR      r0,[r4,#8]
        0x08000b48:    366c        l6      ADDS     r6,r6,#0x6c
        0x08000b4a:    2801        .(      CMP      r0,#1
        0x08000b4c:    d00f        ..      BEQ      0x8000b6e ; HAL_RCC_OscConfig + 586
        0x08000b4e:    2805        .(      CMP      r0,#5
        0x08000b50:    d012        ..      BEQ      0x8000b78 ; HAL_RCC_OscConfig + 596
        0x08000b52:    6830        0h      LDR      r0,[r6,#0]
        0x08000b54:    f0200001     ...    BIC      r0,r0,#1
        0x08000b58:    6030        0`      STR      r0,[r6,#0]
        0x08000b5a:    6830        0h      LDR      r0,[r6,#0]
        0x08000b5c:    f0200004     ...    BIC      r0,r0,#4
        0x08000b60:    6030        0`      STR      r0,[r6,#0]
        0x08000b62:    68a0        .h      LDR      r0,[r4,#8]
        0x08000b64:    b1f8        ..      CBZ      r0,0x8000ba6 ; HAL_RCC_OscConfig + 642
        0x08000b66:    f7fffcf3    ....    BL       HAL_GetTick ; 0x8000550
        0x08000b6a:    4683        .F      MOV      r11,r0
        0x08000b6c:    e017        ..      B        0x8000b9e ; HAL_RCC_OscConfig + 634
        0x08000b6e:    6830        0h      LDR      r0,[r6,#0]
        0x08000b70:    f0400001    @...    ORR      r0,r0,#1
        0x08000b74:    6030        0`      STR      r0,[r6,#0]
        0x08000b76:    e7f4        ..      B        0x8000b62 ; HAL_RCC_OscConfig + 574
        0x08000b78:    6830        0h      LDR      r0,[r6,#0]
        0x08000b7a:    f0400004    @...    ORR      r0,r0,#4
        0x08000b7e:    6030        0`      STR      r0,[r6,#0]
        0x08000b80:    6830        0h      LDR      r0,[r6,#0]
        0x08000b82:    f0400001    @...    ORR      r0,r0,#1
        0x08000b86:    6030        0`      STR      r0,[r6,#0]
        0x08000b88:    e7eb        ..      B        0x8000b62 ; HAL_RCC_OscConfig + 574
        0x08000b8a:    f7fffce1    ....    BL       HAL_GetTick ; 0x8000550
        0x08000b8e:    eba0010b    ....    SUB      r1,r0,r11
        0x08000b92:    f2413088    A..0    MOV      r0,#0x1388
        0x08000b96:    4281        .B      CMP      r1,r0
        0x08000b98:    d901        ..      BLS      0x8000b9e ; HAL_RCC_OscConfig + 634
        0x08000b9a:    2003        .       MOVS     r0,#3
        0x08000b9c:    e6dc        ..      B        0x8000958 ; HAL_RCC_OscConfig + 52
        0x08000b9e:    6830        0h      LDR      r0,[r6,#0]
        0x08000ba0:    0780        ..      LSLS     r0,r0,#30
        0x08000ba2:    d5f2        ..      BPL      0x8000b8a ; HAL_RCC_OscConfig + 614
        0x08000ba4:    e010        ..      B        0x8000bc8 ; HAL_RCC_OscConfig + 676
        0x08000ba6:    f7fffcd3    ....    BL       HAL_GetTick ; 0x8000550
        0x08000baa:    4683        .F      MOV      r11,r0
        0x08000bac:    e009        ..      B        0x8000bc2 ; HAL_RCC_OscConfig + 670
        0x08000bae:    f7fffccf    ....    BL       HAL_GetTick ; 0x8000550
        0x08000bb2:    eba0010b    ....    SUB      r1,r0,r11
        0x08000bb6:    f2413088    A..0    MOV      r0,#0x1388
        0x08000bba:    4281        .B      CMP      r1,r0
        0x08000bbc:    d901        ..      BLS      0x8000bc2 ; HAL_RCC_OscConfig + 670
        0x08000bbe:    2003        .       MOVS     r0,#3
        0x08000bc0:    e6ca        ..      B        0x8000958 ; HAL_RCC_OscConfig + 52
        0x08000bc2:    6830        0h      LDR      r0,[r6,#0]
        0x08000bc4:    0780        ..      LSLS     r0,r0,#30
        0x08000bc6:    d4f2        ..      BMI      0x8000bae ; HAL_RCC_OscConfig + 650
        0x08000bc8:    f1ba0f01    ....    CMP      r10,#1
        0x08000bcc:    d105        ..      BNE      0x8000bda ; HAL_RCC_OscConfig + 694
        0x08000bce:    4841        AH      LDR      r0,[pc,#260] ; [0x8000cd4] = 0x40023804
        0x08000bd0:    303c        <0      ADDS     r0,r0,#0x3c
        0x08000bd2:    6801        .h      LDR      r1,[r0,#0]
        0x08000bd4:    f0215180    !..Q    BIC      r1,r1,#0x10000000
        0x08000bd8:    6001        .`      STR      r1,[r0,#0]
        0x08000bda:    69a0        .i      LDR      r0,[r4,#0x18]
        0x08000bdc:    b3c0        ..      CBZ      r0,0x8000c50 ; HAL_RCC_OscConfig + 812
        0x08000bde:    493d        =I      LDR      r1,[pc,#244] ; [0x8000cd4] = 0x40023804
        0x08000be0:    1d09        ..      ADDS     r1,r1,#4
        0x08000be2:    6809        .h      LDR      r1,[r1,#0]
        0x08000be4:    f04f36ff    O..6    MOV      r6,#0xffffffff
        0x08000be8:    f3c10181    ....    UBFX     r1,r1,#2,#2
        0x08000bec:    2902        .)      CMP      r1,#2
        0x08000bee:    d046        F.      BEQ      0x8000c7e ; HAL_RCC_OscConfig + 858
        0x08000bf0:    2802        .(      CMP      r0,#2
        0x08000bf2:    d005        ..      BEQ      0x8000c00 ; HAL_RCC_OscConfig + 732
        0x08000bf4:    f8c79060    ..`.    STR      r9,[r7,#0x60]
        0x08000bf8:    f7fffcaa    ....    BL       HAL_GetTick ; 0x8000550
        0x08000bfc:    4604        .F      MOV      r4,r0
        0x08000bfe:    e03a        :.      B        0x8000c76 ; HAL_RCC_OscConfig + 850
        0x08000c00:    f8c79060    ..`.    STR      r9,[r7,#0x60]
        0x08000c04:    f7fffca4    ....    BL       HAL_GetTick ; 0x8000550
        0x08000c08:    4681        .F      MOV      r9,r0
        0x08000c0a:    e007        ..      B        0x8000c1c ; HAL_RCC_OscConfig + 760
        0x08000c0c:    f7fffca0    ....    BL       HAL_GetTick ; 0x8000550
        0x08000c10:    eba00009    ....    SUB      r0,r0,r9
        0x08000c14:    2802        .(      CMP      r0,#2
        0x08000c16:    d901        ..      BLS      0x8000c1c ; HAL_RCC_OscConfig + 760
        0x08000c18:    2003        .       MOVS     r0,#3
        0x08000c1a:    e69d        ..      B        0x8000958 ; HAL_RCC_OscConfig + 52
        0x08000c1c:    6828        (h      LDR      r0,[r5,#0]
        0x08000c1e:    0180        ..      LSLS     r0,r0,#6
        0x08000c20:    d4f4        ..      BMI      0x8000c0c ; HAL_RCC_OscConfig + 744
        0x08000c22:    e9d40107    ....    LDRD     r0,r1,[r4,#0x1c]
        0x08000c26:    4308        .C      ORRS     r0,r0,r1
        0x08000c28:    6a61        aj      LDR      r1,[r4,#0x24]
        0x08000c2a:    6aa2        .j      LDR      r2,[r4,#0x28]
        0x08000c2c:    0189        ..      LSLS     r1,r1,#6
        0x08000c2e:    eb060252    ..R.    ADD      r2,r6,r2,LSR #1
        0x08000c32:    ea414102    A..A    ORR      r1,r1,r2,LSL #16
        0x08000c36:    4308        .C      ORRS     r0,r0,r1
        0x08000c38:    f894102c    ..,.    LDRB     r1,[r4,#0x2c]
        0x08000c3c:    ea406001    @..`    ORR      r0,r0,r1,LSL #24
        0x08000c40:    f8c80000    ....    STR      r0,[r8,#0]
        0x08000c44:    2001        .       MOVS     r0,#1
        0x08000c46:    6638        8f      STR      r0,[r7,#0x60]
        0x08000c48:    f7fffc82    ....    BL       HAL_GetTick ; 0x8000550
        0x08000c4c:    4604        .F      MOV      r4,r0
        0x08000c4e:    e007        ..      B        0x8000c60 ; HAL_RCC_OscConfig + 828
        0x08000c50:    e03d        =.      B        0x8000cce ; HAL_RCC_OscConfig + 938
        0x08000c52:    f7fffc7d    ..}.    BL       HAL_GetTick ; 0x8000550
        0x08000c56:    1b00        ..      SUBS     r0,r0,r4
        0x08000c58:    2802        .(      CMP      r0,#2
        0x08000c5a:    d901        ..      BLS      0x8000c60 ; HAL_RCC_OscConfig + 828
        0x08000c5c:    2003        .       MOVS     r0,#3
        0x08000c5e:    e67b        {.      B        0x8000958 ; HAL_RCC_OscConfig + 52
        0x08000c60:    6828        (h      LDR      r0,[r5,#0]
        0x08000c62:    0180        ..      LSLS     r0,r0,#6
        0x08000c64:    d5f5        ..      BPL      0x8000c52 ; HAL_RCC_OscConfig + 814
        0x08000c66:    e032        2.      B        0x8000cce ; HAL_RCC_OscConfig + 938
        0x08000c68:    f7fffc72    ..r.    BL       HAL_GetTick ; 0x8000550
        0x08000c6c:    1b00        ..      SUBS     r0,r0,r4
        0x08000c6e:    2802        .(      CMP      r0,#2
        0x08000c70:    d901        ..      BLS      0x8000c76 ; HAL_RCC_OscConfig + 850
        0x08000c72:    2003        .       MOVS     r0,#3
        0x08000c74:    e670        p.      B        0x8000958 ; HAL_RCC_OscConfig + 52
        0x08000c76:    6828        (h      LDR      r0,[r5,#0]
        0x08000c78:    0180        ..      LSLS     r0,r0,#6
        0x08000c7a:    d4f5        ..      BMI      0x8000c68 ; HAL_RCC_OscConfig + 836
        0x08000c7c:    e027        '.      B        0x8000cce ; HAL_RCC_OscConfig + 938
        0x08000c7e:    2801        .(      CMP      r0,#1
        0x08000c80:    d023        #.      BEQ      0x8000cca ; HAL_RCC_OscConfig + 934
        0x08000c82:    f8d80000    ....    LDR      r0,[r8,#0]
        0x08000c86:    69e2        .i      LDR      r2,[r4,#0x1c]
        0x08000c88:    f4000180    ....    AND      r1,r0,#0x400000
        0x08000c8c:    4291        .B      CMP      r1,r2
        0x08000c8e:    d11a        ..      BNE      0x8000cc6 ; HAL_RCC_OscConfig + 930
        0x08000c90:    6a22        "j      LDR      r2,[r4,#0x20]
        0x08000c92:    f000013f    ..?.    AND      r1,r0,#0x3f
        0x08000c96:    4291        .B      CMP      r1,r2
        0x08000c98:    d115        ..      BNE      0x8000cc6 ; HAL_RCC_OscConfig + 930
        0x08000c9a:    f64771c0    G..q    MOV      r1,#0x7fc0
        0x08000c9e:    6a62        bj      LDR      r2,[r4,#0x24]
        0x08000ca0:    4001        .@      ANDS     r1,r1,r0
        0x08000ca2:    ebb11f82    ....    CMP      r1,r2,LSL #6
        0x08000ca6:    d10e        ..      BNE      0x8000cc6 ; HAL_RCC_OscConfig + 930
        0x08000ca8:    6aa2        .j      LDR      r2,[r4,#0x28]
        0x08000caa:    f4003140    ..@1    AND      r1,r0,#0x30000
        0x08000cae:    eb060252    ..R.    ADD      r2,r6,r2,LSR #1
        0x08000cb2:    ebb14f02    ...O    CMP      r1,r2,LSL #16
        0x08000cb6:    d106        ..      BNE      0x8000cc6 ; HAL_RCC_OscConfig + 930
        0x08000cb8:    f894102c    ..,.    LDRB     r1,[r4,#0x2c]
        0x08000cbc:    f0006070    ..p`    AND      r0,r0,#0xf000000
        0x08000cc0:    ebb06f01    ...o    CMP      r0,r1,LSL #24
        0x08000cc4:    d003        ..      BEQ      0x8000cce ; HAL_RCC_OscConfig + 938
        0x08000cc6:    2001        .       MOVS     r0,#1
        0x08000cc8:    e646        F.      B        0x8000958 ; HAL_RCC_OscConfig + 52
        0x08000cca:    2001        .       MOVS     r0,#1
        0x08000ccc:    e644        D.      B        0x8000958 ; HAL_RCC_OscConfig + 52
        0x08000cce:    2000        .       MOVS     r0,#0
        0x08000cd0:    e642        B.      B        0x8000958 ; HAL_RCC_OscConfig + 52
    $d
        0x08000cd2:    0000        ..      DCW    0
        0x08000cd4:    40023804    .8.@    DCD    1073887236
        0x08000cd8:    42470000    ..GB    DCD    1111949312
        0x08000cdc:    42470e80    ..GB    DCD    1111953024
        0x08000ce0:    40007000    .p.@    DCD    1073770496
    $t
    i.HAL_TIMEx_BreakCallback
    HAL_TIMEx_BreakCallback
        0x08000ce4:    4770        pG      BX       lr
    i.HAL_TIMEx_CommutCallback
    HAL_TIMEx_CommutCallback
        0x08000ce6:    4770        pG      BX       lr
    i.HAL_TIM_Base_Init
    HAL_TIM_Base_Init
        0x08000ce8:    b510        ..      PUSH     {r4,lr}
        0x08000cea:    4604        .F      MOV      r4,r0
        0x08000cec:    2c00        .,      CMP      r4,#0
        0x08000cee:    d002        ..      BEQ      0x8000cf6 ; HAL_TIM_Base_Init + 14
        0x08000cf0:    6c20         l      LDR      r0,[r4,#0x40]
        0x08000cf2:    b110        ..      CBZ      r0,0x8000cfa ; HAL_TIM_Base_Init + 18
        0x08000cf4:    e006        ..      B        0x8000d04 ; HAL_TIM_Base_Init + 28
        0x08000cf6:    2001        .       MOVS     r0,#1
        0x08000cf8:    bd10        ..      POP      {r4,pc}
        0x08000cfa:    2000        .       MOVS     r0,#0
        0x08000cfc:    63e0        .c      STR      r0,[r4,#0x3c]
        0x08000cfe:    4620         F      MOV      r0,r4
        0x08000d00:    f000f813    ....    BL       HAL_TIM_Base_MspInit ; 0x8000d2a
        0x08000d04:    2002        .       MOVS     r0,#2
        0x08000d06:    6420         d      STR      r0,[r4,#0x40]
        0x08000d08:    1d21        !.      ADDS     r1,r4,#4
        0x08000d0a:    6820         h      LDR      r0,[r4,#0]
        0x08000d0c:    f000faa6    ....    BL       TIM_Base_SetConfig ; 0x800125c
        0x08000d10:    2001        .       MOVS     r0,#1
        0x08000d12:    6660        `f      STR      r0,[r4,#0x64]
        0x08000d14:    6460        `d      STR      r0,[r4,#0x44]
        0x08000d16:    64a0        .d      STR      r0,[r4,#0x48]
        0x08000d18:    64e0        .d      STR      r0,[r4,#0x4c]
        0x08000d1a:    6520         e      STR      r0,[r4,#0x50]
        0x08000d1c:    6560        `e      STR      r0,[r4,#0x54]
        0x08000d1e:    65a0        .e      STR      r0,[r4,#0x58]
        0x08000d20:    65e0        .e      STR      r0,[r4,#0x5c]
        0x08000d22:    6620         f      STR      r0,[r4,#0x60]
        0x08000d24:    6420         d      STR      r0,[r4,#0x40]
        0x08000d26:    2000        .       MOVS     r0,#0
        0x08000d28:    bd10        ..      POP      {r4,pc}
    i.HAL_TIM_Base_MspInit
    HAL_TIM_Base_MspInit
        0x08000d2a:    4770        pG      BX       lr
    i.HAL_TIM_Base_Start_IT
    HAL_TIM_Base_Start_IT
        0x08000d2c:    6c01        .l      LDR      r1,[r0,#0x40]
        0x08000d2e:    2901        .)      CMP      r1,#1
        0x08000d30:    d001        ..      BEQ      0x8000d36 ; HAL_TIM_Base_Start_IT + 10
        0x08000d32:    2001        .       MOVS     r0,#1
        0x08000d34:    4770        pG      BX       lr
        0x08000d36:    2102        .!      MOVS     r1,#2
        0x08000d38:    6401        .d      STR      r1,[r0,#0x40]
        0x08000d3a:    6801        .h      LDR      r1,[r0,#0]
        0x08000d3c:    68ca        .h      LDR      r2,[r1,#0xc]
        0x08000d3e:    f0420201    B...    ORR      r2,r2,#1
        0x08000d42:    60ca        .`      STR      r2,[r1,#0xc]
        0x08000d44:    6800        .h      LDR      r0,[r0,#0]
        0x08000d46:    4911        .I      LDR      r1,[pc,#68] ; [0x8000d8c] = 0x40010000
        0x08000d48:    4288        .B      CMP      r0,r1
        0x08000d4a:    d00e        ..      BEQ      0x8000d6a ; HAL_TIM_Base_Start_IT + 62
        0x08000d4c:    f1b04f80    ...O    CMP      r0,#0x40000000
        0x08000d50:    d00b        ..      BEQ      0x8000d6a ; HAL_TIM_Base_Start_IT + 62
        0x08000d52:    490f        .I      LDR      r1,[pc,#60] ; [0x8000d90] = 0x40000400
        0x08000d54:    4288        .B      CMP      r0,r1
        0x08000d56:    d008        ..      BEQ      0x8000d6a ; HAL_TIM_Base_Start_IT + 62
        0x08000d58:    490e        .I      LDR      r1,[pc,#56] ; [0x8000d94] = 0x40000800
        0x08000d5a:    4288        .B      CMP      r0,r1
        0x08000d5c:    d005        ..      BEQ      0x8000d6a ; HAL_TIM_Base_Start_IT + 62
        0x08000d5e:    490e        .I      LDR      r1,[pc,#56] ; [0x8000d98] = 0x40000c00
        0x08000d60:    4288        .B      CMP      r0,r1
        0x08000d62:    d002        ..      BEQ      0x8000d6a ; HAL_TIM_Base_Start_IT + 62
        0x08000d64:    490d        .I      LDR      r1,[pc,#52] ; [0x8000d9c] = 0x40014000
        0x08000d66:    4288        .B      CMP      r0,r1
        0x08000d68:    d109        ..      BNE      0x8000d7e ; HAL_TIM_Base_Start_IT + 82
        0x08000d6a:    6881        .h      LDR      r1,[r0,#8]
        0x08000d6c:    f0010107    ....    AND      r1,r1,#7
        0x08000d70:    2906        .)      CMP      r1,#6
        0x08000d72:    d008        ..      BEQ      0x8000d86 ; HAL_TIM_Base_Start_IT + 90
        0x08000d74:    6801        .h      LDR      r1,[r0,#0]
        0x08000d76:    f0410101    A...    ORR      r1,r1,#1
        0x08000d7a:    6001        .`      STR      r1,[r0,#0]
        0x08000d7c:    e003        ..      B        0x8000d86 ; HAL_TIM_Base_Start_IT + 90
        0x08000d7e:    6801        .h      LDR      r1,[r0,#0]
        0x08000d80:    f0410101    A...    ORR      r1,r1,#1
        0x08000d84:    6001        .`      STR      r1,[r0,#0]
        0x08000d86:    2000        .       MOVS     r0,#0
        0x08000d88:    4770        pG      BX       lr
    $d
        0x08000d8a:    0000        ..      DCW    0
        0x08000d8c:    40010000    ...@    DCD    1073807360
        0x08000d90:    40000400    ...@    DCD    1073742848
        0x08000d94:    40000800    ...@    DCD    1073743872
        0x08000d98:    40000c00    ...@    DCD    1073744896
        0x08000d9c:    40014000    .@.@    DCD    1073823744
    $t
    i.HAL_TIM_IC_CaptureCallback
    HAL_TIM_IC_CaptureCallback
        0x08000da0:    4770        pG      BX       lr
    i.HAL_TIM_IRQHandler
    HAL_TIM_IRQHandler
        0x08000da2:    b570        p.      PUSH     {r4-r6,lr}
        0x08000da4:    4604        .F      MOV      r4,r0
        0x08000da6:    6820         h      LDR      r0,[r4,#0]
        0x08000da8:    6901        .i      LDR      r1,[r0,#0x10]
        0x08000daa:    f04f0500    O...    MOV      r5,#0
        0x08000dae:    43c9        .C      MVNS     r1,r1
        0x08000db0:    0789        ..      LSLS     r1,r1,#30
        0x08000db2:    d416        ..      BMI      0x8000de2 ; HAL_TIM_IRQHandler + 64
        0x08000db4:    68c1        .h      LDR      r1,[r0,#0xc]
        0x08000db6:    43c9        .C      MVNS     r1,r1
        0x08000db8:    0789        ..      LSLS     r1,r1,#30
        0x08000dba:    d412        ..      BMI      0x8000de2 ; HAL_TIM_IRQHandler + 64
        0x08000dbc:    1ee9        ..      SUBS     r1,r5,#3
        0x08000dbe:    6101        .a      STR      r1,[r0,#0x10]
        0x08000dc0:    2001        .       MOVS     r0,#1
        0x08000dc2:    61e0        .a      STR      r0,[r4,#0x1c]
        0x08000dc4:    6820         h      LDR      r0,[r4,#0]
        0x08000dc6:    6980        .i      LDR      r0,[r0,#0x18]
        0x08000dc8:    0780        ..      LSLS     r0,r0,#30
        0x08000dca:    d003        ..      BEQ      0x8000dd4 ; HAL_TIM_IRQHandler + 50
        0x08000dcc:    4620         F      MOV      r0,r4
        0x08000dce:    f7ffffe7    ....    BL       HAL_TIM_IC_CaptureCallback ; 0x8000da0
        0x08000dd2:    e005        ..      B        0x8000de0 ; HAL_TIM_IRQHandler + 62
        0x08000dd4:    4620         F      MOV      r0,r4
        0x08000dd6:    f000f89b    ....    BL       HAL_TIM_OC_DelayElapsedCallback ; 0x8000f10
        0x08000dda:    4620         F      MOV      r0,r4
        0x08000ddc:    f000f899    ....    BL       HAL_TIM_PWM_PulseFinishedCallback ; 0x8000f12
        0x08000de0:    61e5        .a      STR      r5,[r4,#0x1c]
        0x08000de2:    6820         h      LDR      r0,[r4,#0]
        0x08000de4:    6901        .i      LDR      r1,[r0,#0x10]
        0x08000de6:    43c9        .C      MVNS     r1,r1
        0x08000de8:    0749        I.      LSLS     r1,r1,#29
        0x08000dea:    d418        ..      BMI      0x8000e1e ; HAL_TIM_IRQHandler + 124
        0x08000dec:    68c1        .h      LDR      r1,[r0,#0xc]
        0x08000dee:    43c9        .C      MVNS     r1,r1
        0x08000df0:    0749        I.      LSLS     r1,r1,#29
        0x08000df2:    d414        ..      BMI      0x8000e1e ; HAL_TIM_IRQHandler + 124
        0x08000df4:    f06f0104    o...    MVN      r1,#4
        0x08000df8:    6101        .a      STR      r1,[r0,#0x10]
        0x08000dfa:    2002        .       MOVS     r0,#2
        0x08000dfc:    61e0        .a      STR      r0,[r4,#0x1c]
        0x08000dfe:    6820         h      LDR      r0,[r4,#0]
        0x08000e00:    6980        .i      LDR      r0,[r0,#0x18]
        0x08000e02:    f4107f40    ..@.    TST      r0,#0x300
        0x08000e06:    d003        ..      BEQ      0x8000e10 ; HAL_TIM_IRQHandler + 110
        0x08000e08:    4620         F      MOV      r0,r4
        0x08000e0a:    f7ffffc9    ....    BL       HAL_TIM_IC_CaptureCallback ; 0x8000da0
        0x08000e0e:    e005        ..      B        0x8000e1c ; HAL_TIM_IRQHandler + 122
        0x08000e10:    4620         F      MOV      r0,r4
        0x08000e12:    f000f87d    ..}.    BL       HAL_TIM_OC_DelayElapsedCallback ; 0x8000f10
        0x08000e16:    4620         F      MOV      r0,r4
        0x08000e18:    f000f87b    ..{.    BL       HAL_TIM_PWM_PulseFinishedCallback ; 0x8000f12
        0x08000e1c:    61e5        .a      STR      r5,[r4,#0x1c]
        0x08000e1e:    6820         h      LDR      r0,[r4,#0]
        0x08000e20:    6901        .i      LDR      r1,[r0,#0x10]
        0x08000e22:    43c9        .C      MVNS     r1,r1
        0x08000e24:    0709        ..      LSLS     r1,r1,#28
        0x08000e26:    d417        ..      BMI      0x8000e58 ; HAL_TIM_IRQHandler + 182
        0x08000e28:    68c1        .h      LDR      r1,[r0,#0xc]
        0x08000e2a:    43c9        .C      MVNS     r1,r1
        0x08000e2c:    0709        ..      LSLS     r1,r1,#28
        0x08000e2e:    d413        ..      BMI      0x8000e58 ; HAL_TIM_IRQHandler + 182
        0x08000e30:    f06f0108    o...    MVN      r1,#8
        0x08000e34:    6101        .a      STR      r1,[r0,#0x10]
        0x08000e36:    2004        .       MOVS     r0,#4
        0x08000e38:    61e0        .a      STR      r0,[r4,#0x1c]
        0x08000e3a:    6820         h      LDR      r0,[r4,#0]
        0x08000e3c:    69c0        .i      LDR      r0,[r0,#0x1c]
        0x08000e3e:    0780        ..      LSLS     r0,r0,#30
        0x08000e40:    d003        ..      BEQ      0x8000e4a ; HAL_TIM_IRQHandler + 168
        0x08000e42:    4620         F      MOV      r0,r4
        0x08000e44:    f7ffffac    ....    BL       HAL_TIM_IC_CaptureCallback ; 0x8000da0
        0x08000e48:    e005        ..      B        0x8000e56 ; HAL_TIM_IRQHandler + 180
        0x08000e4a:    4620         F      MOV      r0,r4
        0x08000e4c:    f000f860    ..`.    BL       HAL_TIM_OC_DelayElapsedCallback ; 0x8000f10
        0x08000e50:    4620         F      MOV      r0,r4
        0x08000e52:    f000f85e    ..^.    BL       HAL_TIM_PWM_PulseFinishedCallback ; 0x8000f12
        0x08000e56:    61e5        .a      STR      r5,[r4,#0x1c]
        0x08000e58:    6820         h      LDR      r0,[r4,#0]
        0x08000e5a:    6901        .i      LDR      r1,[r0,#0x10]
        0x08000e5c:    43c9        .C      MVNS     r1,r1
        0x08000e5e:    06c9        ..      LSLS     r1,r1,#27
        0x08000e60:    d418        ..      BMI      0x8000e94 ; HAL_TIM_IRQHandler + 242
        0x08000e62:    68c1        .h      LDR      r1,[r0,#0xc]
        0x08000e64:    43c9        .C      MVNS     r1,r1
        0x08000e66:    06c9        ..      LSLS     r1,r1,#27
        0x08000e68:    d414        ..      BMI      0x8000e94 ; HAL_TIM_IRQHandler + 242
        0x08000e6a:    f06f0110    o...    MVN      r1,#0x10
        0x08000e6e:    6101        .a      STR      r1,[r0,#0x10]
        0x08000e70:    2008        .       MOVS     r0,#8
        0x08000e72:    61e0        .a      STR      r0,[r4,#0x1c]
        0x08000e74:    6820         h      LDR      r0,[r4,#0]
        0x08000e76:    69c0        .i      LDR      r0,[r0,#0x1c]
        0x08000e78:    f4107f40    ..@.    TST      r0,#0x300
        0x08000e7c:    d003        ..      BEQ      0x8000e86 ; HAL_TIM_IRQHandler + 228
        0x08000e7e:    4620         F      MOV      r0,r4
        0x08000e80:    f7ffff8e    ....    BL       HAL_TIM_IC_CaptureCallback ; 0x8000da0
        0x08000e84:    e005        ..      B        0x8000e92 ; HAL_TIM_IRQHandler + 240
        0x08000e86:    4620         F      MOV      r0,r4
        0x08000e88:    f000f842    ..B.    BL       HAL_TIM_OC_DelayElapsedCallback ; 0x8000f10
        0x08000e8c:    4620         F      MOV      r0,r4
        0x08000e8e:    f000f840    ..@.    BL       HAL_TIM_PWM_PulseFinishedCallback ; 0x8000f12
        0x08000e92:    61e5        .a      STR      r5,[r4,#0x1c]
        0x08000e94:    6820         h      LDR      r0,[r4,#0]
        0x08000e96:    6901        .i      LDR      r1,[r0,#0x10]
        0x08000e98:    43c9        .C      MVNS     r1,r1
        0x08000e9a:    07c9        ..      LSLS     r1,r1,#31
        0x08000e9c:    d108        ..      BNE      0x8000eb0 ; HAL_TIM_IRQHandler + 270
        0x08000e9e:    68c1        .h      LDR      r1,[r0,#0xc]
        0x08000ea0:    43c9        .C      MVNS     r1,r1
        0x08000ea2:    07c9        ..      LSLS     r1,r1,#31
        0x08000ea4:    d104        ..      BNE      0x8000eb0 ; HAL_TIM_IRQHandler + 270
        0x08000ea6:    1e89        ..      SUBS     r1,r1,#2
        0x08000ea8:    6101        .a      STR      r1,[r0,#0x10]
        0x08000eaa:    4620         F      MOV      r0,r4
        0x08000eac:    f000f832    ..2.    BL       HAL_TIM_PeriodElapsedCallback ; 0x8000f14
        0x08000eb0:    6820         h      LDR      r0,[r4,#0]
        0x08000eb2:    6901        .i      LDR      r1,[r0,#0x10]
        0x08000eb4:    43c9        .C      MVNS     r1,r1
        0x08000eb6:    0609        ..      LSLS     r1,r1,#24
        0x08000eb8:    d409        ..      BMI      0x8000ece ; HAL_TIM_IRQHandler + 300
        0x08000eba:    68c1        .h      LDR      r1,[r0,#0xc]
        0x08000ebc:    43c9        .C      MVNS     r1,r1
        0x08000ebe:    0609        ..      LSLS     r1,r1,#24
        0x08000ec0:    d405        ..      BMI      0x8000ece ; HAL_TIM_IRQHandler + 300
        0x08000ec2:    f06f0180    o...    MVN      r1,#0x80
        0x08000ec6:    6101        .a      STR      r1,[r0,#0x10]
        0x08000ec8:    4620         F      MOV      r0,r4
        0x08000eca:    f7ffff0b    ....    BL       HAL_TIMEx_BreakCallback ; 0x8000ce4
        0x08000ece:    6820         h      LDR      r0,[r4,#0]
        0x08000ed0:    6901        .i      LDR      r1,[r0,#0x10]
        0x08000ed2:    43c9        .C      MVNS     r1,r1
        0x08000ed4:    0649        I.      LSLS     r1,r1,#25
        0x08000ed6:    d409        ..      BMI      0x8000eec ; HAL_TIM_IRQHandler + 330
        0x08000ed8:    68c1        .h      LDR      r1,[r0,#0xc]
        0x08000eda:    43c9        .C      MVNS     r1,r1
        0x08000edc:    0649        I.      LSLS     r1,r1,#25
        0x08000ede:    d405        ..      BMI      0x8000eec ; HAL_TIM_IRQHandler + 330
        0x08000ee0:    f06f0140    o.@.    MVN      r1,#0x40
        0x08000ee4:    6101        .a      STR      r1,[r0,#0x10]
        0x08000ee6:    4620         F      MOV      r0,r4
        0x08000ee8:    f000f81e    ....    BL       HAL_TIM_TriggerCallback ; 0x8000f28
        0x08000eec:    6820         h      LDR      r0,[r4,#0]
        0x08000eee:    6901        .i      LDR      r1,[r0,#0x10]
        0x08000ef0:    43c9        .C      MVNS     r1,r1
        0x08000ef2:    0689        ..      LSLS     r1,r1,#26
        0x08000ef4:    d40b        ..      BMI      0x8000f0e ; HAL_TIM_IRQHandler + 364
        0x08000ef6:    68c1        .h      LDR      r1,[r0,#0xc]
        0x08000ef8:    43c9        .C      MVNS     r1,r1
        0x08000efa:    0689        ..      LSLS     r1,r1,#26
        0x08000efc:    d407        ..      BMI      0x8000f0e ; HAL_TIM_IRQHandler + 364
        0x08000efe:    f06f0120    o. .    MVN      r1,#0x20
        0x08000f02:    6101        .a      STR      r1,[r0,#0x10]
        0x08000f04:    4620         F      MOV      r0,r4
        0x08000f06:    e8bd4070    ..p@    POP      {r4-r6,lr}
        0x08000f0a:    f7ffbeec    ....    B.W      HAL_TIMEx_CommutCallback ; 0x8000ce6
        0x08000f0e:    bd70        p.      POP      {r4-r6,pc}
    i.HAL_TIM_OC_DelayElapsedCallback
    HAL_TIM_OC_DelayElapsedCallback
        0x08000f10:    4770        pG      BX       lr
    i.HAL_TIM_PWM_PulseFinishedCallback
    HAL_TIM_PWM_PulseFinishedCallback
        0x08000f12:    4770        pG      BX       lr
    i.HAL_TIM_PeriodElapsedCallback
    HAL_TIM_PeriodElapsedCallback
        0x08000f14:    6800        .h      LDR      r0,[r0,#0]
        0x08000f16:    4903        .I      LDR      r1,[pc,#12] ; [0x8000f24] = 0x40010000
        0x08000f18:    4288        .B      CMP      r0,r1
        0x08000f1a:    d101        ..      BNE      0x8000f20 ; HAL_TIM_PeriodElapsedCallback + 12
        0x08000f1c:    f7ffbb1e    ....    B        HAL_IncTick ; 0x800055c
        0x08000f20:    4770        pG      BX       lr
    $d
        0x08000f22:    0000        ..      DCW    0
        0x08000f24:    40010000    ...@    DCD    1073807360
    $t
    i.HAL_TIM_TriggerCallback
    HAL_TIM_TriggerCallback
        0x08000f28:    4770        pG      BX       lr
    i.HAL_UART_Init
    HAL_UART_Init
        0x08000f2a:    b570        p.      PUSH     {r4-r6,lr}
        0x08000f2c:    4604        .F      MOV      r4,r0
        0x08000f2e:    2c00        .,      CMP      r4,#0
        0x08000f30:    d003        ..      BEQ      0x8000f3a ; HAL_UART_Init + 16
        0x08000f32:    6c20         l      LDR      r0,[r4,#0x40]
        0x08000f34:    2500        .%      MOVS     r5,#0
        0x08000f36:    b110        ..      CBZ      r0,0x8000f3e ; HAL_UART_Init + 20
        0x08000f38:    e005        ..      B        0x8000f46 ; HAL_UART_Init + 28
        0x08000f3a:    2001        .       MOVS     r0,#1
        0x08000f3c:    bd70        p.      POP      {r4-r6,pc}
        0x08000f3e:    63e5        .c      STR      r5,[r4,#0x3c]
        0x08000f40:    4620         F      MOV      r0,r4
        0x08000f42:    f000f81f    ....    BL       HAL_UART_MspInit ; 0x8000f84
        0x08000f46:    2024        $       MOVS     r0,#0x24
        0x08000f48:    6420         d      STR      r0,[r4,#0x40]
        0x08000f4a:    6820         h      LDR      r0,[r4,#0]
        0x08000f4c:    68c1        .h      LDR      r1,[r0,#0xc]
        0x08000f4e:    f4215100    !..Q    BIC      r1,r1,#0x2000
        0x08000f52:    60c1        .`      STR      r1,[r0,#0xc]
        0x08000f54:    4620         F      MOV      r0,r4
        0x08000f56:    f000f9cd    ....    BL       UART_SetConfig ; 0x80012f4
        0x08000f5a:    6820         h      LDR      r0,[r4,#0]
        0x08000f5c:    6901        .i      LDR      r1,[r0,#0x10]
        0x08000f5e:    f4214190    !..A    BIC      r1,r1,#0x4800
        0x08000f62:    6101        .a      STR      r1,[r0,#0x10]
        0x08000f64:    6820         h      LDR      r0,[r4,#0]
        0x08000f66:    6941        Ai      LDR      r1,[r0,#0x14]
        0x08000f68:    f021012a    !.*.    BIC      r1,r1,#0x2a
        0x08000f6c:    6141        Aa      STR      r1,[r0,#0x14]
        0x08000f6e:    6820         h      LDR      r0,[r4,#0]
        0x08000f70:    68c1        .h      LDR      r1,[r0,#0xc]
        0x08000f72:    f4415100    A..Q    ORR      r1,r1,#0x2000
        0x08000f76:    60c1        .`      STR      r1,[r0,#0xc]
        0x08000f78:    64a5        .d      STR      r5,[r4,#0x48]
        0x08000f7a:    2020                MOVS     r0,#0x20
        0x08000f7c:    6420         d      STR      r0,[r4,#0x40]
        0x08000f7e:    6460        `d      STR      r0,[r4,#0x44]
        0x08000f80:    2000        .       MOVS     r0,#0
        0x08000f82:    bd70        p.      POP      {r4-r6,pc}
    i.HAL_UART_MspInit
    HAL_UART_MspInit
        0x08000f84:    b510        ..      PUSH     {r4,lr}
        0x08000f86:    b086        ..      SUB      sp,sp,#0x18
        0x08000f88:    4604        .F      MOV      r4,r0
        0x08000f8a:    2114        .!      MOVS     r1,#0x14
        0x08000f8c:    a801        ..      ADD      r0,sp,#4
        0x08000f8e:    f7fff9cb    ....    BL       __aeabi_memclr ; 0x8000328
        0x08000f92:    4914        .I      LDR      r1,[pc,#80] ; [0x8000fe4] = 0x40011000
        0x08000f94:    6820         h      LDR      r0,[r4,#0]
        0x08000f96:    4288        .B      CMP      r0,r1
        0x08000f98:    d121        !.      BNE      0x8000fde ; HAL_UART_MspInit + 90
        0x08000f9a:    2100        .!      MOVS     r1,#0
        0x08000f9c:    4812        .H      LDR      r0,[pc,#72] ; [0x8000fe8] = 0x40023844
        0x08000f9e:    6802        .h      LDR      r2,[r0,#0]
        0x08000fa0:    f0420210    B...    ORR      r2,r2,#0x10
        0x08000fa4:    6002        .`      STR      r2,[r0,#0]
        0x08000fa6:    6800        .h      LDR      r0,[r0,#0]
        0x08000fa8:    f0000010    ....    AND      r0,r0,#0x10
        0x08000fac:    9000        ..      STR      r0,[sp,#0]
        0x08000fae:    480e        .H      LDR      r0,[pc,#56] ; [0x8000fe8] = 0x40023844
        0x08000fb0:    3814        .8      SUBS     r0,r0,#0x14
        0x08000fb2:    6802        .h      LDR      r2,[r0,#0]
        0x08000fb4:    f0420201    B...    ORR      r2,r2,#1
        0x08000fb8:    6002        .`      STR      r2,[r0,#0]
        0x08000fba:    6800        .h      LDR      r0,[r0,#0]
        0x08000fbc:    f0000001    ....    AND      r0,r0,#1
        0x08000fc0:    9000        ..      STR      r0,[sp,#0]
        0x08000fc2:    f44f60c0    O..`    MOV      r0,#0x600
        0x08000fc6:    9001        ..      STR      r0,[sp,#4]
        0x08000fc8:    2002        .       MOVS     r0,#2
        0x08000fca:    9002        ..      STR      r0,[sp,#8]
        0x08000fcc:    9103        ..      STR      r1,[sp,#0xc]
        0x08000fce:    2003        .       MOVS     r0,#3
        0x08000fd0:    9004        ..      STR      r0,[sp,#0x10]
        0x08000fd2:    2007        .       MOVS     r0,#7
        0x08000fd4:    9005        ..      STR      r0,[sp,#0x14]
        0x08000fd6:    a901        ..      ADD      r1,sp,#4
        0x08000fd8:    4804        .H      LDR      r0,[pc,#16] ; [0x8000fec] = 0x40020000
        0x08000fda:    f7fff9e5    ....    BL       HAL_GPIO_Init ; 0x80003a8
        0x08000fde:    b006        ..      ADD      sp,sp,#0x18
        0x08000fe0:    bd10        ..      POP      {r4,pc}
    $d
        0x08000fe2:    0000        ..      DCW    0
        0x08000fe4:    40011000    ...@    DCD    1073811456
        0x08000fe8:    40023844    D8.@    DCD    1073887300
        0x08000fec:    40020000    ...@    DCD    1073872896
    $t
    i.HAL_UART_Transmit
    HAL_UART_Transmit
        0x08000ff0:    e92d43f8    -..C    PUSH     {r3-r9,lr}
        0x08000ff4:    4604        .F      MOV      r4,r0
        0x08000ff6:    460e        .F      MOV      r6,r1
        0x08000ff8:    4615        .F      MOV      r5,r2
        0x08000ffa:    461f        .F      MOV      r7,r3
        0x08000ffc:    6c20         l      LDR      r0,[r4,#0x40]
        0x08000ffe:    2820         (      CMP      r0,#0x20
        0x08001000:    d002        ..      BEQ      0x8001008 ; HAL_UART_Transmit + 24
        0x08001002:    2002        .       MOVS     r0,#2
        0x08001004:    e8bd83f8    ....    POP      {r3-r9,pc}
        0x08001008:    b1ae        ..      CBZ      r6,0x8001036 ; HAL_UART_Transmit + 70
        0x0800100a:    b1a5        ..      CBZ      r5,0x8001036 ; HAL_UART_Transmit + 70
        0x0800100c:    6be0        .k      LDR      r0,[r4,#0x3c]
        0x0800100e:    2801        .(      CMP      r0,#1
        0x08001010:    d013        ..      BEQ      0x800103a ; HAL_UART_Transmit + 74
        0x08001012:    2001        .       MOVS     r0,#1
        0x08001014:    63e0        .c      STR      r0,[r4,#0x3c]
        0x08001016:    f04f0900    O...    MOV      r9,#0
        0x0800101a:    f8c49048    ..H.    STR      r9,[r4,#0x48]
        0x0800101e:    2021        !       MOVS     r0,#0x21
        0x08001020:    6420         d      STR      r0,[r4,#0x40]
        0x08001022:    f7fffa95    ....    BL       HAL_GetTick ; 0x8000550
        0x08001026:    4680        .F      MOV      r8,r0
        0x08001028:    84a5        ..      STRH     r5,[r4,#0x24]
        0x0800102a:    84e5        ..      STRH     r5,[r4,#0x26]
        0x0800102c:    68a0        .h      LDR      r0,[r4,#8]
        0x0800102e:    f5b05f80    ..._    CMP      r0,#0x1000
        0x08001032:    d004        ..      BEQ      0x800103e ; HAL_UART_Transmit + 78
        0x08001034:    e005        ..      B        0x8001042 ; HAL_UART_Transmit + 82
        0x08001036:    2001        .       MOVS     r0,#1
        0x08001038:    e7e4        ..      B        0x8001004 ; HAL_UART_Transmit + 20
        0x0800103a:    2002        .       MOVS     r0,#2
        0x0800103c:    e7e2        ..      B        0x8001004 ; HAL_UART_Transmit + 20
        0x0800103e:    6920         i      LDR      r0,[r4,#0x10]
        0x08001040:    b120         .      CBZ      r0,0x800104c ; HAL_UART_Transmit + 92
        0x08001042:    4635        5F      MOV      r5,r6
        0x08001044:    2600        .&      MOVS     r6,#0
        0x08001046:    f8c4903c    ..<.    STR      r9,[r4,#0x3c]
        0x0800104a:    e013        ..      B        0x8001074 ; HAL_UART_Transmit + 132
        0x0800104c:    2500        .%      MOVS     r5,#0
        0x0800104e:    e7fa        ..      B        0x8001046 ; HAL_UART_Transmit + 86
        0x08001050:    4643        CF      MOV      r3,r8
        0x08001052:    2200        ."      MOVS     r2,#0
        0x08001054:    2180        .!      MOVS     r1,#0x80
        0x08001056:    4620         F      MOV      r0,r4
        0x08001058:    9700        ..      STR      r7,[sp,#0]
        0x0800105a:    f000f9d5    ....    BL       UART_WaitOnFlagUntilTimeout ; 0x8001408
        0x0800105e:    b108        ..      CBZ      r0,0x8001064 ; HAL_UART_Transmit + 116
        0x08001060:    2003        .       MOVS     r0,#3
        0x08001062:    e7cf        ..      B        0x8001004 ; HAL_UART_Transmit + 20
        0x08001064:    b19d        ..      CBZ      r5,0x800108e ; HAL_UART_Transmit + 158
        0x08001066:    6821        !h      LDR      r1,[r4,#0]
        0x08001068:    f8150b01    ....    LDRB     r0,[r5],#1
        0x0800106c:    6048        H`      STR      r0,[r1,#4]
        0x0800106e:    8ce0        ..      LDRH     r0,[r4,#0x26]
        0x08001070:    1e40        @.      SUBS     r0,r0,#1
        0x08001072:    84e0        ..      STRH     r0,[r4,#0x26]
        0x08001074:    8ce0        ..      LDRH     r0,[r4,#0x26]
        0x08001076:    2800        .(      CMP      r0,#0
        0x08001078:    d1ea        ..      BNE      0x8001050 ; HAL_UART_Transmit + 96
        0x0800107a:    4643        CF      MOV      r3,r8
        0x0800107c:    2200        ."      MOVS     r2,#0
        0x0800107e:    2140        @!      MOVS     r1,#0x40
        0x08001080:    4620         F      MOV      r0,r4
        0x08001082:    9700        ..      STR      r7,[sp,#0]
        0x08001084:    f000f9c0    ....    BL       UART_WaitOnFlagUntilTimeout ; 0x8001408
        0x08001088:    b140        @.      CBZ      r0,0x800109c ; HAL_UART_Transmit + 172
        0x0800108a:    2003        .       MOVS     r0,#3
        0x0800108c:    e7ba        ..      B        0x8001004 ; HAL_UART_Transmit + 20
        0x0800108e:    f8360b02    6...    LDRH     r0,[r6],#2
        0x08001092:    6821        !h      LDR      r1,[r4,#0]
        0x08001094:    f3c00008    ....    UBFX     r0,r0,#0,#9
        0x08001098:    6048        H`      STR      r0,[r1,#4]
        0x0800109a:    e7e8        ..      B        0x800106e ; HAL_UART_Transmit + 126
        0x0800109c:    2020                MOVS     r0,#0x20
        0x0800109e:    6420         d      STR      r0,[r4,#0x40]
        0x080010a0:    2000        .       MOVS     r0,#0
        0x080010a2:    e7af        ..      B        0x8001004 ; HAL_UART_Transmit + 20
    i.HardFault_Handler
    HardFault_Handler
        0x080010a4:    e7fe        ..      B        HardFault_Handler ; 0x80010a4
        0x080010a6:    0000        ..      MOVS     r0,r0
    i.MX_FREERTOS_Init
    MX_FREERTOS_Init
        0x080010a8:    b510        ..      PUSH     {r4,lr}
        0x080010aa:    4a04        .J      LDR      r2,[pc,#16] ; [0x80010bc] = 0x80031c4
        0x080010ac:    2100        .!      MOVS     r1,#0
        0x080010ae:    4804        .H      LDR      r0,[pc,#16] ; [0x80010c0] = 0x8001141
        0x080010b0:    f000fc28    ..(.    BL       osThreadNew ; 0x8001904
        0x080010b4:    4903        .I      LDR      r1,[pc,#12] ; [0x80010c4] = 0x20000000
        0x080010b6:    6088        .`      STR      r0,[r1,#8]
        0x080010b8:    bd10        ..      POP      {r4,pc}
    $d
        0x080010ba:    0000        ..      DCW    0
        0x080010bc:    080031c4    .1..    DCD    134230468
        0x080010c0:    08001141    A...    DCD    134222145
        0x080010c4:    20000000    ...     DCD    536870912
    $t
    i.MX_GPIO_Init
    MX_GPIO_Init
        0x080010c8:    b508        ..      PUSH     {r3,lr}
        0x080010ca:    480d        .H      LDR      r0,[pc,#52] ; [0x8001100] = 0x40023830
        0x080010cc:    6801        .h      LDR      r1,[r0,#0]
        0x080010ce:    f0410104    A...    ORR      r1,r1,#4
        0x080010d2:    6001        .`      STR      r1,[r0,#0]
        0x080010d4:    6801        .h      LDR      r1,[r0,#0]
        0x080010d6:    f0010104    ....    AND      r1,r1,#4
        0x080010da:    9100        ..      STR      r1,[sp,#0]
        0x080010dc:    6801        .h      LDR      r1,[r0,#0]
        0x080010de:    f0410180    A...    ORR      r1,r1,#0x80
        0x080010e2:    6001        .`      STR      r1,[r0,#0]
        0x080010e4:    6801        .h      LDR      r1,[r0,#0]
        0x080010e6:    f0010180    ....    AND      r1,r1,#0x80
        0x080010ea:    9100        ..      STR      r1,[sp,#0]
        0x080010ec:    6801        .h      LDR      r1,[r0,#0]
        0x080010ee:    f0410101    A...    ORR      r1,r1,#1
        0x080010f2:    6001        .`      STR      r1,[r0,#0]
        0x080010f4:    6800        .h      LDR      r0,[r0,#0]
        0x080010f6:    f0000001    ....    AND      r0,r0,#1
        0x080010fa:    9000        ..      STR      r0,[sp,#0]
        0x080010fc:    bd08        ..      POP      {r3,pc}
    $d
        0x080010fe:    0000        ..      DCW    0
        0x08001100:    40023830    08.@    DCD    1073887280
    $t
    i.MX_USART1_UART_Init
    MX_USART1_UART_Init
        0x08001104:    b510        ..      PUSH     {r4,lr}
        0x08001106:    480c        .H      LDR      r0,[pc,#48] ; [0x8001138] = 0x200000a8
        0x08001108:    490a        .I      LDR      r1,[pc,#40] ; [0x8001134] = 0x40011000
        0x0800110a:    6001        .`      STR      r1,[r0,#0]
        0x0800110c:    f44f31e1    O..1    MOV      r1,#0x1c200
        0x08001110:    6041        A`      STR      r1,[r0,#4]
        0x08001112:    2100        .!      MOVS     r1,#0
        0x08001114:    6081        .`      STR      r1,[r0,#8]
        0x08001116:    60c1        .`      STR      r1,[r0,#0xc]
        0x08001118:    6101        .a      STR      r1,[r0,#0x10]
        0x0800111a:    220c        ."      MOVS     r2,#0xc
        0x0800111c:    6142        Ba      STR      r2,[r0,#0x14]
        0x0800111e:    6181        .a      STR      r1,[r0,#0x18]
        0x08001120:    61c1        .a      STR      r1,[r0,#0x1c]
        0x08001122:    f7ffff02    ....    BL       HAL_UART_Init ; 0x8000f2a
        0x08001126:    2800        .(      CMP      r0,#0
        0x08001128:    d003        ..      BEQ      0x8001132 ; MX_USART1_UART_Init + 46
        0x0800112a:    e8bd4010    ...@    POP      {r4,lr}
        0x0800112e:    f7ffb939    ..9.    B        Error_Handler ; 0x80003a4
        0x08001132:    bd10        ..      POP      {r4,pc}
    $d
        0x08001134:    40011000    ...@    DCD    1073811456
        0x08001138:    200000a8    ...     DCD    536871080
    $t
    i.MemManage_Handler
    MemManage_Handler
        0x0800113c:    e7fe        ..      B        MemManage_Handler ; 0x800113c
    i.NMI_Handler
    NMI_Handler
        0x0800113e:    e7fe        ..      B        NMI_Handler ; 0x800113e
    i.StartDefaultTask
    StartDefaultTask
        0x08001140:    b088        ..      SUB      sp,sp,#0x20
        0x08001142:    a00b        ..      ADR      r0,{pc}+0x2e ; 0x8001170
        0x08001144:    f000f99a    ....    BL       __0printf$4 ; 0x800147c
        0x08001148:    4b0d        .K      LDR      r3,[pc,#52] ; [0x8001180] = 0x20000000
        0x0800114a:    4668        hF      MOV      r0,sp
        0x0800114c:    1d1a        ..      ADDS     r2,r3,#4
        0x0800114e:    f1020108    ....    ADD      r1,r2,#8
        0x08001152:    f000fb4b    ..K.    BL       led_driver_inst ; 0x80017ec
        0x08001156:    2302        .#      MOVS     r3,#2
        0x08001158:    220a        ."      MOVS     r2,#0xa
        0x0800115a:    9c07        ..      LDR      r4,[sp,#0x1c]
        0x0800115c:    4611        .F      MOV      r1,r2
        0x0800115e:    4668        hF      MOV      r0,sp
        0x08001160:    47a0        .G      BLX      r4
        0x08001162:    a008        ..      ADR      r0,{pc}+0x22 ; 0x8001184
        0x08001164:    f000f98a    ....    BL       __0printf$4 ; 0x800147c
        0x08001168:    2064        d       MOVS     r0,#0x64
        0x0800116a:    f000fb8c    ....    BL       osDelay ; 0x8001886
        0x0800116e:    e7fb        ..      B        0x8001168 ; StartDefaultTask + 40
    $d
        0x08001170:    6c6c6548    Hell    DCD    1819043144
        0x08001174:    6f57206f    o Wo    DCD    1867980911
        0x08001178:    21646c72    rld!    DCD    560229490
        0x0800117c:    00000a0d    ....    DCD    2573
        0x08001180:    20000000    ...     DCD    536870912
        0x08001184:    6c6c6548    Hell    DCD    1819043144
        0x08001188:    6f57206f    o Wo    DCD    1867980911
        0x0800118c:    32646c72    rld2    DCD    845442162
        0x08001190:    000a0d21    !...    DCD    658721
    $t
    i.SysTick_Handler
    SysTick_Handler
        0x08001194:    b510        ..      PUSH     {r4,lr}
        0x08001196:    f04f20e0    O..     MOV      r0,#0xe000e000
        0x0800119a:    6900        .i      LDR      r0,[r0,#0x10]
        0x0800119c:    f001fe50    ..P.    BL       xTaskGetSchedulerState ; 0x8002e40
        0x080011a0:    2801        .(      CMP      r0,#1
        0x080011a2:    d003        ..      BEQ      0x80011ac ; SysTick_Handler + 24
        0x080011a4:    e8bd4010    ...@    POP      {r4,lr}
        0x080011a8:    f001bb6a    ..j.    B.W      xPortSysTickHandler ; 0x8002880
        0x080011ac:    bd10        ..      POP      {r4,pc}
        0x080011ae:    0000        ..      MOVS     r0,r0
    i.SystemClock_Config
    SystemClock_Config
        0x080011b0:    b530        0.      PUSH     {r4,r5,lr}
        0x080011b2:    b093        ..      SUB      sp,sp,#0x4c
        0x080011b4:    2130        0!      MOVS     r1,#0x30
        0x080011b6:    a807        ..      ADD      r0,sp,#0x1c
        0x080011b8:    f7fff8b6    ....    BL       __aeabi_memclr ; 0x8000328
        0x080011bc:    2114        .!      MOVS     r1,#0x14
        0x080011be:    a802        ..      ADD      r0,sp,#8
        0x080011c0:    f7fff8b2    ....    BL       __aeabi_memclr ; 0x8000328
        0x080011c4:    2500        .%      MOVS     r5,#0
        0x080011c6:    481c        .H      LDR      r0,[pc,#112] ; [0x8001238] = 0x40023840
        0x080011c8:    6801        .h      LDR      r1,[r0,#0]
        0x080011ca:    f0415180    A..Q    ORR      r1,r1,#0x10000000
        0x080011ce:    6001        .`      STR      r1,[r0,#0]
        0x080011d0:    6800        .h      LDR      r0,[r0,#0]
        0x080011d2:    f0005080    ...P    AND      r0,r0,#0x10000000
        0x080011d6:    9001        ..      STR      r0,[sp,#4]
        0x080011d8:    4818        .H      LDR      r0,[pc,#96] ; [0x800123c] = 0x40007000
        0x080011da:    6801        .h      LDR      r1,[r0,#0]
        0x080011dc:    f4414140    A.@A    ORR      r1,r1,#0xc000
        0x080011e0:    6001        .`      STR      r1,[r0,#0]
        0x080011e2:    6800        .h      LDR      r0,[r0,#0]
        0x080011e4:    f4004040    ..@@    AND      r0,r0,#0xc000
        0x080011e8:    9001        ..      STR      r0,[sp,#4]
        0x080011ea:    2402        .$      MOVS     r4,#2
        0x080011ec:    9407        ..      STR      r4,[sp,#0x1c]
        0x080011ee:    2001        .       MOVS     r0,#1
        0x080011f0:    900a        ..      STR      r0,[sp,#0x28]
        0x080011f2:    2010        .       MOVS     r0,#0x10
        0x080011f4:    900b        ..      STR      r0,[sp,#0x2c]
        0x080011f6:    940d        ..      STR      r4,[sp,#0x34]
        0x080011f8:    950e        ..      STR      r5,[sp,#0x38]
        0x080011fa:    2008        .       MOVS     r0,#8
        0x080011fc:    900f        ..      STR      r0,[sp,#0x3c]
        0x080011fe:    2064        d       MOVS     r0,#0x64
        0x08001200:    9010        ..      STR      r0,[sp,#0x40]
        0x08001202:    9411        ..      STR      r4,[sp,#0x44]
        0x08001204:    2004        .       MOVS     r0,#4
        0x08001206:    9012        ..      STR      r0,[sp,#0x48]
        0x08001208:    a807        ..      ADD      r0,sp,#0x1c
        0x0800120a:    f7fffb8b    ....    BL       HAL_RCC_OscConfig ; 0x8000924
        0x0800120e:    b108        ..      CBZ      r0,0x8001214 ; SystemClock_Config + 100
        0x08001210:    f7fff8c8    ....    BL       Error_Handler ; 0x80003a4
        0x08001214:    200f        .       MOVS     r0,#0xf
        0x08001216:    9002        ..      STR      r0,[sp,#8]
        0x08001218:    9403        ..      STR      r4,[sp,#0xc]
        0x0800121a:    9504        ..      STR      r5,[sp,#0x10]
        0x0800121c:    f44f5080    O..P    MOV      r0,#0x1000
        0x08001220:    9005        ..      STR      r0,[sp,#0x14]
        0x08001222:    9506        ..      STR      r5,[sp,#0x18]
        0x08001224:    2103        .!      MOVS     r1,#3
        0x08001226:    a802        ..      ADD      r0,sp,#8
        0x08001228:    f7fffa5c    ..\.    BL       HAL_RCC_ClockConfig ; 0x80006e4
        0x0800122c:    2800        .(      CMP      r0,#0
        0x0800122e:    d001        ..      BEQ      0x8001234 ; SystemClock_Config + 132
        0x08001230:    f7fff8b8    ....    BL       Error_Handler ; 0x80003a4
        0x08001234:    b013        ..      ADD      sp,sp,#0x4c
        0x08001236:    bd30        0.      POP      {r4,r5,pc}
    $d
        0x08001238:    40023840    @8.@    DCD    1073887296
        0x0800123c:    40007000    .p.@    DCD    1073770496
    $t
    i.SystemInit
    SystemInit
        0x08001240:    4802        .H      LDR      r0,[pc,#8] ; [0x800124c] = 0xe000ed88
        0x08001242:    6801        .h      LDR      r1,[r0,#0]
        0x08001244:    f4410170    A.p.    ORR      r1,r1,#0xf00000
        0x08001248:    6001        .`      STR      r1,[r0,#0]
        0x0800124a:    4770        pG      BX       lr
    $d
        0x0800124c:    e000ed88    ....    DCD    3758157192
    $t
    i.TIM1_UP_TIM10_IRQHandler
    TIM1_UP_TIM10_IRQHandler
        0x08001250:    4801        .H      LDR      r0,[pc,#4] ; [0x8001258] = 0x200000f4
        0x08001252:    f7ffbda6    ....    B.W      HAL_TIM_IRQHandler ; 0x8000da2
    $d
        0x08001256:    0000        ..      DCW    0
        0x08001258:    200000f4    ...     DCD    536871156
    $t
    i.TIM_Base_SetConfig
    TIM_Base_SetConfig
        0x0800125c:    b5f0        ..      PUSH     {r4-r7,lr}
        0x0800125e:    6802        .h      LDR      r2,[r0,#0]
        0x08001260:    4c1d        .L      LDR      r4,[pc,#116] ; [0x80012d8] = 0x40010000
        0x08001262:    4d1e        .M      LDR      r5,[pc,#120] ; [0x80012dc] = 0x40000400
        0x08001264:    4e1e        .N      LDR      r6,[pc,#120] ; [0x80012e0] = 0x40000800
        0x08001266:    4f1f        .O      LDR      r7,[pc,#124] ; [0x80012e4] = 0x40000c00
        0x08001268:    f04f4c80    O..L    MOV      r12,#0x40000000
        0x0800126c:    42a0        .B      CMP      r0,r4
        0x0800126e:    d007        ..      BEQ      0x8001280 ; TIM_Base_SetConfig + 36
        0x08001270:    4560        `E      CMP      r0,r12
        0x08001272:    d005        ..      BEQ      0x8001280 ; TIM_Base_SetConfig + 36
        0x08001274:    42a8        .B      CMP      r0,r5
        0x08001276:    d003        ..      BEQ      0x8001280 ; TIM_Base_SetConfig + 36
        0x08001278:    42b0        .B      CMP      r0,r6
        0x0800127a:    d001        ..      BEQ      0x8001280 ; TIM_Base_SetConfig + 36
        0x0800127c:    42b8        .B      CMP      r0,r7
        0x0800127e:    d103        ..      BNE      0x8001288 ; TIM_Base_SetConfig + 44
        0x08001280:    f0220370    ".p.    BIC      r3,r2,#0x70
        0x08001284:    684a        Jh      LDR      r2,[r1,#4]
        0x08001286:    431a        .C      ORRS     r2,r2,r3
        0x08001288:    42a0        .B      CMP      r0,r4
        0x0800128a:    d010        ..      BEQ      0x80012ae ; TIM_Base_SetConfig + 82
        0x0800128c:    4560        `E      CMP      r0,r12
        0x0800128e:    d00e        ..      BEQ      0x80012ae ; TIM_Base_SetConfig + 82
        0x08001290:    42a8        .B      CMP      r0,r5
        0x08001292:    d00c        ..      BEQ      0x80012ae ; TIM_Base_SetConfig + 82
        0x08001294:    42b0        .B      CMP      r0,r6
        0x08001296:    d00a        ..      BEQ      0x80012ae ; TIM_Base_SetConfig + 82
        0x08001298:    42b8        .B      CMP      r0,r7
        0x0800129a:    d008        ..      BEQ      0x80012ae ; TIM_Base_SetConfig + 82
        0x0800129c:    4b12        .K      LDR      r3,[pc,#72] ; [0x80012e8] = 0x40014000
        0x0800129e:    4298        .B      CMP      r0,r3
        0x080012a0:    d005        ..      BEQ      0x80012ae ; TIM_Base_SetConfig + 82
        0x080012a2:    4b12        .K      LDR      r3,[pc,#72] ; [0x80012ec] = 0x40014400
        0x080012a4:    4298        .B      CMP      r0,r3
        0x080012a6:    d002        ..      BEQ      0x80012ae ; TIM_Base_SetConfig + 82
        0x080012a8:    4b11        .K      LDR      r3,[pc,#68] ; [0x80012f0] = 0x40014800
        0x080012aa:    4298        .B      CMP      r0,r3
        0x080012ac:    d103        ..      BNE      0x80012b6 ; TIM_Base_SetConfig + 90
        0x080012ae:    f4227340    ".@s    BIC      r3,r2,#0x300
        0x080012b2:    68ca        .h      LDR      r2,[r1,#0xc]
        0x080012b4:    431a        .C      ORRS     r2,r2,r3
        0x080012b6:    694b        Ki      LDR      r3,[r1,#0x14]
        0x080012b8:    f0220280    "...    BIC      r2,r2,#0x80
        0x080012bc:    431a        .C      ORRS     r2,r2,r3
        0x080012be:    6002        .`      STR      r2,[r0,#0]
        0x080012c0:    688a        .h      LDR      r2,[r1,#8]
        0x080012c2:    62c2        .b      STR      r2,[r0,#0x2c]
        0x080012c4:    680a        .h      LDR      r2,[r1,#0]
        0x080012c6:    6282        .b      STR      r2,[r0,#0x28]
        0x080012c8:    42a0        .B      CMP      r0,r4
        0x080012ca:    d101        ..      BNE      0x80012d0 ; TIM_Base_SetConfig + 116
        0x080012cc:    6909        .i      LDR      r1,[r1,#0x10]
        0x080012ce:    6301        .c      STR      r1,[r0,#0x30]
        0x080012d0:    2101        .!      MOVS     r1,#1
        0x080012d2:    6141        Aa      STR      r1,[r0,#0x14]
        0x080012d4:    bdf0        ..      POP      {r4-r7,pc}
    $d
        0x080012d6:    0000        ..      DCW    0
        0x080012d8:    40010000    ...@    DCD    1073807360
        0x080012dc:    40000400    ...@    DCD    1073742848
        0x080012e0:    40000800    ...@    DCD    1073743872
        0x080012e4:    40000c00    ...@    DCD    1073744896
        0x080012e8:    40014000    .@.@    DCD    1073823744
        0x080012ec:    40014400    .D.@    DCD    1073824768
        0x080012f0:    40014800    .H.@    DCD    1073825792
    $t
    i.UART_SetConfig
    UART_SetConfig
        0x080012f4:    e92d41f0    -..A    PUSH     {r4-r8,lr}
        0x080012f8:    4604        .F      MOV      r4,r0
        0x080012fa:    6820         h      LDR      r0,[r4,#0]
        0x080012fc:    6901        .i      LDR      r1,[r0,#0x10]
        0x080012fe:    68e2        .h      LDR      r2,[r4,#0xc]
        0x08001300:    f4215140    !.@Q    BIC      r1,r1,#0x3000
        0x08001304:    4311        .C      ORRS     r1,r1,r2
        0x08001306:    6101        .a      STR      r1,[r0,#0x10]
        0x08001308:    68a1        .h      LDR      r1,[r4,#8]
        0x0800130a:    6920         i      LDR      r0,[r4,#0x10]
        0x0800130c:    69e2        .i      LDR      r2,[r4,#0x1c]
        0x0800130e:    4301        .C      ORRS     r1,r1,r0
        0x08001310:    6960        `i      LDR      r0,[r4,#0x14]
        0x08001312:    4310        .C      ORRS     r0,r0,r2
        0x08001314:    4301        .C      ORRS     r1,r1,r0
        0x08001316:    6820         h      LDR      r0,[r4,#0]
        0x08001318:    68c2        .h      LDR      r2,[r0,#0xc]
        0x0800131a:    f249630c    I..c    MOV      r3,#0x960c
        0x0800131e:    439a        .C      BICS     r2,r2,r3
        0x08001320:    430a        .C      ORRS     r2,r2,r1
        0x08001322:    60c2        .`      STR      r2,[r0,#0xc]
        0x08001324:    6820         h      LDR      r0,[r4,#0]
        0x08001326:    6941        Ai      LDR      r1,[r0,#0x14]
        0x08001328:    69a2        .i      LDR      r2,[r4,#0x18]
        0x0800132a:    f4217140    !.@q    BIC      r1,r1,#0x300
        0x0800132e:    4311        .C      ORRS     r1,r1,r2
        0x08001330:    6141        Aa      STR      r1,[r0,#0x14]
        0x08001332:    4933        3I      LDR      r1,[pc,#204] ; [0x8001400] = 0x40011000
        0x08001334:    6820         h      LDR      r0,[r4,#0]
        0x08001336:    4288        .B      CMP      r0,r1
        0x08001338:    d002        ..      BEQ      0x8001340 ; UART_SetConfig + 76
        0x0800133a:    4932        2I      LDR      r1,[pc,#200] ; [0x8001404] = 0x40011400
        0x0800133c:    4288        .B      CMP      r0,r1
        0x0800133e:    d102        ..      BNE      0x8001346 ; UART_SetConfig + 82
        0x08001340:    f7fffaaa    ....    BL       HAL_RCC_GetPCLK2Freq ; 0x8000898
        0x08001344:    e001        ..      B        0x800134a ; UART_SetConfig + 86
        0x08001346:    f7fffa97    ....    BL       HAL_RCC_GetPCLK1Freq ; 0x8000878
        0x0800134a:    69e1        .i      LDR      r1,[r4,#0x1c]
        0x0800134c:    2300        .#      MOVS     r3,#0
        0x0800134e:    2719        .'      MOVS     r7,#0x19
        0x08001350:    2564        d%      MOVS     r5,#0x64
        0x08001352:    2632        2&      MOVS     r6,#0x32
        0x08001354:    f5b14f00    ...O    CMP      r1,#0x8000
        0x08001358:    d028        (.      BEQ      0x80013ac ; UART_SetConfig + 184
        0x0800135a:    6861        ah      LDR      r1,[r4,#4]
        0x0800135c:    0f8b        ..      LSRS     r3,r1,#30
        0x0800135e:    008a        ..      LSLS     r2,r1,#2
        0x08001360:    fba00107    ....    UMULL    r0,r1,r0,r7
        0x08001364:    f7feff96    ....    BL       __aeabi_uldivmod ; 0x8000294
        0x08001368:    4601        .F      MOV      r1,r0
        0x0800136a:    fbb0f0f5    ....    UDIV     r0,r0,r5
        0x0800136e:    427a        zB      RSBS     r2,r7,#0
        0x08001370:    4350        PC      MULS     r0,r2,r0
        0x08001372:    eb010080    ....    ADD      r0,r1,r0,LSL #2
        0x08001376:    eb061000    ....    ADD      r0,r6,r0,LSL #4
        0x0800137a:    fbb0f0f5    ....    UDIV     r0,r0,r5
        0x0800137e:    f00002f0    ....    AND      r2,r0,#0xf0
        0x08001382:    fbb1f0f5    ....    UDIV     r0,r1,r5
        0x08001386:    eb021200    ....    ADD      r2,r2,r0,LSL #4
        0x0800138a:    fbb1f0f5    ....    UDIV     r0,r1,r5
        0x0800138e:    427b        {B      RSBS     r3,r7,#0
        0x08001390:    4358        XC      MULS     r0,r3,r0
        0x08001392:    eb010080    ....    ADD      r0,r1,r0,LSL #2
        0x08001396:    eb061000    ....    ADD      r0,r6,r0,LSL #4
        0x0800139a:    fbb0f0f5    ....    UDIV     r0,r0,r5
        0x0800139e:    6821        !h      LDR      r1,[r4,#0]
        0x080013a0:    f000000f    ....    AND      r0,r0,#0xf
        0x080013a4:    4410        .D      ADD      r0,r0,r2
        0x080013a6:    6088        .`      STR      r0,[r1,#8]
        0x080013a8:    e8bd81f0    ....    POP      {r4-r8,pc}
        0x080013ac:    6861        ah      LDR      r1,[r4,#4]
        0x080013ae:    184a        J.      ADDS     r2,r1,r1
        0x080013b0:    fba00107    ....    UMULL    r0,r1,r0,r7
        0x080013b4:    415b        [A      ADCS     r3,r3,r3
        0x080013b6:    f7feff6d    ..m.    BL       __aeabi_uldivmod ; 0x8000294
        0x080013ba:    4601        .F      MOV      r1,r0
        0x080013bc:    fbb0f0f5    ....    UDIV     r0,r0,r5
        0x080013c0:    0102        ..      LSLS     r2,r0,#4
        0x080013c2:    fbb1f0f5    ....    UDIV     r0,r1,r5
        0x080013c6:    f06f0318    o...    MVN      r3,#0x18
        0x080013ca:    4358        XC      MULS     r0,r3,r0
        0x080013cc:    eb010080    ....    ADD      r0,r1,r0,LSL #2
        0x080013d0:    eb0600c0    ....    ADD      r0,r6,r0,LSL #3
        0x080013d4:    fbb0f0f5    ....    UDIV     r0,r0,r5
        0x080013d8:    f00000f8    ....    AND      r0,r0,#0xf8
        0x080013dc:    eb020240    ..@.    ADD      r2,r2,r0,LSL #1
        0x080013e0:    fbb1f0f5    ....    UDIV     r0,r1,r5
        0x080013e4:    4358        XC      MULS     r0,r3,r0
        0x080013e6:    eb010080    ....    ADD      r0,r1,r0,LSL #2
        0x080013ea:    eb0600c0    ....    ADD      r0,r6,r0,LSL #3
        0x080013ee:    fbb0f0f5    ....    UDIV     r0,r0,r5
        0x080013f2:    6821        !h      LDR      r1,[r4,#0]
        0x080013f4:    f0000007    ....    AND      r0,r0,#7
        0x080013f8:    4410        .D      ADD      r0,r0,r2
        0x080013fa:    6088        .`      STR      r0,[r1,#8]
        0x080013fc:    e7d4        ..      B        0x80013a8 ; UART_SetConfig + 180
    $d
        0x080013fe:    0000        ..      DCW    0
        0x08001400:    40011000    ...@    DCD    1073811456
        0x08001404:    40011400    ...@    DCD    1073812480
    $t
    i.UART_WaitOnFlagUntilTimeout
    UART_WaitOnFlagUntilTimeout
        0x08001408:    e92d41f0    -..A    PUSH     {r4-r8,lr}
        0x0800140c:    4604        .F      MOV      r4,r0
        0x0800140e:    460e        .F      MOV      r6,r1
        0x08001410:    4617        .F      MOV      r7,r2
        0x08001412:    4698        .F      MOV      r8,r3
        0x08001414:    9d06        ..      LDR      r5,[sp,#0x18]
        0x08001416:    e024        $.      B        0x8001462 ; UART_WaitOnFlagUntilTimeout + 90
        0x08001418:    1c68        h.      ADDS     r0,r5,#1
        0x0800141a:    d022        ".      BEQ      0x8001462 ; UART_WaitOnFlagUntilTimeout + 90
        0x0800141c:    b12d        -.      CBZ      r5,0x800142a ; UART_WaitOnFlagUntilTimeout + 34
        0x0800141e:    f7fff897    ....    BL       HAL_GetTick ; 0x8000550
        0x08001422:    eba00008    ....    SUB      r0,r0,r8
        0x08001426:    42a8        .B      CMP      r0,r5
        0x08001428:    d91b        ..      BLS      0x8001462 ; UART_WaitOnFlagUntilTimeout + 90
        0x0800142a:    6820         h      LDR      r0,[r4,#0]
        0x0800142c:    300c        .0      ADDS     r0,r0,#0xc
        0x0800142e:    e8501f00    P...    LDREX    r1,[r0]
        0x08001432:    f42171d0    !..q    BIC      r1,r1,#0x1a0
        0x08001436:    e8401200    @...    STREX    r2,r1,[r0]
        0x0800143a:    2a00        .*      CMP      r2,#0
        0x0800143c:    d1f5        ..      BNE      0x800142a ; UART_WaitOnFlagUntilTimeout + 34
        0x0800143e:    6820         h      LDR      r0,[r4,#0]
        0x08001440:    3014        .0      ADDS     r0,r0,#0x14
        0x08001442:    e8501f00    P...    LDREX    r1,[r0]
        0x08001446:    f0210101    !...    BIC      r1,r1,#1
        0x0800144a:    e8401200    @...    STREX    r2,r1,[r0]
        0x0800144e:    2a00        .*      CMP      r2,#0
        0x08001450:    d1f5        ..      BNE      0x800143e ; UART_WaitOnFlagUntilTimeout + 54
        0x08001452:    2020                MOVS     r0,#0x20
        0x08001454:    6420         d      STR      r0,[r4,#0x40]
        0x08001456:    6460        `d      STR      r0,[r4,#0x44]
        0x08001458:    2000        .       MOVS     r0,#0
        0x0800145a:    63e0        .c      STR      r0,[r4,#0x3c]
        0x0800145c:    2003        .       MOVS     r0,#3
        0x0800145e:    e8bd81f0    ....    POP      {r4-r8,pc}
        0x08001462:    6820         h      LDR      r0,[r4,#0]
        0x08001464:    6800        .h      LDR      r0,[r0,#0]
        0x08001466:    ea360000    6...    BICS     r0,r6,r0
        0x0800146a:    d004        ..      BEQ      0x8001476 ; UART_WaitOnFlagUntilTimeout + 110
        0x0800146c:    2000        .       MOVS     r0,#0
        0x0800146e:    42b8        .B      CMP      r0,r7
        0x08001470:    d0d2        ..      BEQ      0x8001418 ; UART_WaitOnFlagUntilTimeout + 16
        0x08001472:    2000        .       MOVS     r0,#0
        0x08001474:    e7f3        ..      B        0x800145e ; UART_WaitOnFlagUntilTimeout + 86
        0x08001476:    2001        .       MOVS     r0,#1
        0x08001478:    e7f9        ..      B        0x800146e ; UART_WaitOnFlagUntilTimeout + 102
    i.UsageFault_Handler
    UsageFault_Handler
        0x0800147a:    e7fe        ..      B        UsageFault_Handler ; 0x800147a
    i.__0printf$4
    __0printf$4
    __1printf$4
    __2printf
        0x0800147c:    b40f        ..      PUSH     {r0-r3}
        0x0800147e:    4b05        .K      LDR      r3,[pc,#20] ; [0x8001494] = 0x8001709
        0x08001480:    b510        ..      PUSH     {r4,lr}
        0x08001482:    a903        ..      ADD      r1,sp,#0xc
        0x08001484:    4a04        .J      LDR      r2,[pc,#16] ; [0x8001498] = 0x200000a4
        0x08001486:    9802        ..      LDR      r0,[sp,#8]
        0x08001488:    f000f828    ..(.    BL       _printf_core ; 0x80014dc
        0x0800148c:    bc10        ..      POP      {r4}
        0x0800148e:    f85dfb14    ]...    LDR      pc,[sp],#0x14
    $d
        0x08001492:    0000        ..      DCW    0
        0x08001494:    08001709    ....    DCD    134223625
        0x08001498:    200000a4    ...     DCD    536871076
    $t
    i.__NVIC_SetPriority
    __NVIC_SetPriority
        0x0800149c:    0709        ..      LSLS     r1,r1,#28
        0x0800149e:    0e09        ..      LSRS     r1,r1,#24
        0x080014a0:    2800        .(      CMP      r0,#0
        0x080014a2:    db04        ..      BLT      0x80014ae ; __NVIC_SetPriority + 18
        0x080014a4:    f10020e0    ...     ADD      r0,r0,#0xe000e000
        0x080014a8:    f8801400    ....    STRB     r1,[r0,#0x400]
        0x080014ac:    4770        pG      BX       lr
        0x080014ae:    f000000f    ....    AND      r0,r0,#0xf
        0x080014b2:    f10020e0    ...     ADD      r0,r0,#0xe000e000
        0x080014b6:    f8801d14    ....    STRB     r1,[r0,#0xd14]
        0x080014ba:    4770        pG      BX       lr
    i.__scatterload_copy
    __scatterload_copy
        0x080014bc:    e002        ..      B        0x80014c4 ; __scatterload_copy + 8
        0x080014be:    c808        ..      LDM      r0!,{r3}
        0x080014c0:    1f12        ..      SUBS     r2,r2,#4
        0x080014c2:    c108        ..      STM      r1!,{r3}
        0x080014c4:    2a00        .*      CMP      r2,#0
        0x080014c6:    d1fa        ..      BNE      0x80014be ; __scatterload_copy + 2
        0x080014c8:    4770        pG      BX       lr
    i.__scatterload_null
    __scatterload_null
        0x080014ca:    4770        pG      BX       lr
    i.__scatterload_zeroinit
    __scatterload_zeroinit
        0x080014cc:    2000        .       MOVS     r0,#0
        0x080014ce:    e001        ..      B        0x80014d4 ; __scatterload_zeroinit + 8
        0x080014d0:    c101        ..      STM      r1!,{r0}
        0x080014d2:    1f12        ..      SUBS     r2,r2,#4
        0x080014d4:    2a00        .*      CMP      r2,#0
        0x080014d6:    d1fb        ..      BNE      0x80014d0 ; __scatterload_zeroinit + 4
        0x080014d8:    4770        pG      BX       lr
        0x080014da:    0000        ..      MOVS     r0,r0
    i._printf_core
    _printf_core
        0x080014dc:    e92d4fff    -..O    PUSH     {r0-r11,lr}
        0x080014e0:    b08b        ..      SUB      sp,sp,#0x2c
        0x080014e2:    469a        .F      MOV      r10,r3
        0x080014e4:    460f        .F      MOV      r7,r1
        0x080014e6:    4604        .F      MOV      r4,r0
        0x080014e8:    2600        .&      MOVS     r6,#0
        0x080014ea:    e006        ..      B        0x80014fa ; _printf_core + 30
        0x080014ec:    2825        %(      CMP      r0,#0x25
        0x080014ee:    d00b        ..      BEQ      0x8001508 ; _printf_core + 44
        0x080014f0:    4652        RF      MOV      r2,r10
        0x080014f2:    990d        ..      LDR      r1,[sp,#0x34]
        0x080014f4:    4790        .G      BLX      r2
        0x080014f6:    1c64        d.      ADDS     r4,r4,#1
        0x080014f8:    1c76        v.      ADDS     r6,r6,#1
        0x080014fa:    7820         x      LDRB     r0,[r4,#0]
        0x080014fc:    2800        .(      CMP      r0,#0
        0x080014fe:    d1f5        ..      BNE      0x80014ec ; _printf_core + 16
        0x08001500:    b00f        ..      ADD      sp,sp,#0x3c
        0x08001502:    4630        0F      MOV      r0,r6
        0x08001504:    e8bd8ff0    ....    POP      {r4-r11,pc}
        0x08001508:    2500        .%      MOVS     r5,#0
        0x0800150a:    46a9        .F      MOV      r9,r5
        0x0800150c:    2201        ."      MOVS     r2,#1
        0x0800150e:    497d        }I      LDR      r1,[pc,#500] ; [0x8001704] = 0x12809
        0x08001510:    e000        ..      B        0x8001514 ; _printf_core + 56
        0x08001512:    4305        .C      ORRS     r5,r5,r0
        0x08001514:    f8143f01    ...?    LDRB     r3,[r4,#1]!
        0x08001518:    3b20         ;      SUBS     r3,r3,#0x20
        0x0800151a:    fa02f003    ....    LSL      r0,r2,r3
        0x0800151e:    4208        .B      TST      r0,r1
        0x08001520:    d1f7        ..      BNE      0x8001512 ; _printf_core + 54
        0x08001522:    7820         x      LDRB     r0,[r4,#0]
        0x08001524:    282e        .(      CMP      r0,#0x2e
        0x08001526:    d117        ..      BNE      0x8001558 ; _printf_core + 124
        0x08001528:    f8140f01    ....    LDRB     r0,[r4,#1]!
        0x0800152c:    f0450504    E...    ORR      r5,r5,#4
        0x08001530:    282a        *(      CMP      r0,#0x2a
        0x08001532:    d00e        ..      BEQ      0x8001552 ; _printf_core + 118
        0x08001534:    f06f022f    o./.    MVN      r2,#0x2f
        0x08001538:    7820         x      LDRB     r0,[r4,#0]
        0x0800153a:    f1a00130    ..0.    SUB      r1,r0,#0x30
        0x0800153e:    2909        .)      CMP      r1,#9
        0x08001540:    d80a        ..      BHI      0x8001558 ; _printf_core + 124
        0x08001542:    eb090189    ....    ADD      r1,r9,r9,LSL #2
        0x08001546:    eb020141    ..A.    ADD      r1,r2,r1,LSL #1
        0x0800154a:    eb000901    ....    ADD      r9,r0,r1
        0x0800154e:    1c64        d.      ADDS     r4,r4,#1
        0x08001550:    e7f2        ..      B        0x8001538 ; _printf_core + 92
        0x08001552:    f8579b04    W...    LDR      r9,[r7],#4
        0x08001556:    1c64        d.      ADDS     r4,r4,#1
        0x08001558:    7820         x      LDRB     r0,[r4,#0]
        0x0800155a:    286c        l(      CMP      r0,#0x6c
        0x0800155c:    d00d        ..      BEQ      0x800157a ; _printf_core + 158
        0x0800155e:    dc04        ..      BGT      0x800156a ; _printf_core + 142
        0x08001560:    284c        L(      CMP      r0,#0x4c
        0x08001562:    d012        ..      BEQ      0x800158a ; _printf_core + 174
        0x08001564:    286a        j(      CMP      r0,#0x6a
        0x08001566:    d111        ..      BNE      0x800158c ; _printf_core + 176
        0x08001568:    e004        ..      B        0x8001574 ; _printf_core + 152
        0x0800156a:    2874        t(      CMP      r0,#0x74
        0x0800156c:    d00d        ..      BEQ      0x800158a ; _printf_core + 174
        0x0800156e:    287a        z(      CMP      r0,#0x7a
        0x08001570:    d10c        ..      BNE      0x800158c ; _printf_core + 176
        0x08001572:    e00a        ..      B        0x800158a ; _printf_core + 174
        0x08001574:    f4451500    E...    ORR      r5,r5,#0x200000
        0x08001578:    e007        ..      B        0x800158a ; _printf_core + 174
        0x0800157a:    7861        ax      LDRB     r1,[r4,#1]
        0x0800157c:    f4451580    E...    ORR      r5,r5,#0x100000
        0x08001580:    4281        .B      CMP      r1,r0
        0x08001582:    d102        ..      BNE      0x800158a ; _printf_core + 174
        0x08001584:    1c64        d.      ADDS     r4,r4,#1
        0x08001586:    f5051580    ....    ADD      r5,r5,#0x100000
        0x0800158a:    1c64        d.      ADDS     r4,r4,#1
        0x0800158c:    7820         x      LDRB     r0,[r4,#0]
        0x0800158e:    2869        i(      CMP      r0,#0x69
        0x08001590:    d03e        >.      BEQ      0x8001610 ; _printf_core + 308
        0x08001592:    dc06        ..      BGT      0x80015a2 ; _printf_core + 198
        0x08001594:    2800        .(      CMP      r0,#0
        0x08001596:    d0b3        ..      BEQ      0x8001500 ; _printf_core + 36
        0x08001598:    2863        c(      CMP      r0,#0x63
        0x0800159a:    d00b        ..      BEQ      0x80015b4 ; _printf_core + 216
        0x0800159c:    2864        d(      CMP      r0,#0x64
        0x0800159e:    d104        ..      BNE      0x80015aa ; _printf_core + 206
        0x080015a0:    e036        6.      B        0x8001610 ; _printf_core + 308
        0x080015a2:    2873        s(      CMP      r0,#0x73
        0x080015a4:    d010        ..      BEQ      0x80015c8 ; _printf_core + 236
        0x080015a6:    2875        u(      CMP      r0,#0x75
        0x080015a8:    d05c        \.      BEQ      0x8001664 ; _printf_core + 392
        0x080015aa:    4652        RF      MOV      r2,r10
        0x080015ac:    990d        ..      LDR      r1,[sp,#0x34]
        0x080015ae:    4790        .G      BLX      r2
        0x080015b0:    1c76        v.      ADDS     r6,r6,#1
        0x080015b2:    e0a5        ..      B        0x8001700 ; _printf_core + 548
        0x080015b4:    f8170b04    ....    LDRB     r0,[r7],#4
        0x080015b8:    f88d0000    ....    STRB     r0,[sp,#0]
        0x080015bc:    2000        .       MOVS     r0,#0
        0x080015be:    f88d0001    ....    STRB     r0,[sp,#1]
        0x080015c2:    46e8        .F      MOV      r8,sp
        0x080015c4:    2001        .       MOVS     r0,#1
        0x080015c6:    e003        ..      B        0x80015d0 ; _printf_core + 244
        0x080015c8:    f8578b04    W...    LDR      r8,[r7],#4
        0x080015cc:    f04f30ff    O..0    MOV      r0,#0xffffffff
        0x080015d0:    0769        i.      LSLS     r1,r5,#29
        0x080015d2:    f04f0500    O...    MOV      r5,#0
        0x080015d6:    d401        ..      BMI      0x80015dc ; _printf_core + 256
        0x080015d8:    e00a        ..      B        0x80015f0 ; _printf_core + 276
        0x080015da:    1c6d        m.      ADDS     r5,r5,#1
        0x080015dc:    454d        ME      CMP      r5,r9
        0x080015de:    da0d        ..      BGE      0x80015fc ; _printf_core + 288
        0x080015e0:    4285        .B      CMP      r5,r0
        0x080015e2:    dbfa        ..      BLT      0x80015da ; _printf_core + 254
        0x080015e4:    f8181005    ....    LDRB     r1,[r8,r5]
        0x080015e8:    2900        .)      CMP      r1,#0
        0x080015ea:    d1f6        ..      BNE      0x80015da ; _printf_core + 254
        0x080015ec:    e006        ..      B        0x80015fc ; _printf_core + 288
        0x080015ee:    1c6d        m.      ADDS     r5,r5,#1
        0x080015f0:    4285        .B      CMP      r5,r0
        0x080015f2:    dbfc        ..      BLT      0x80015ee ; _printf_core + 274
        0x080015f4:    f8181005    ....    LDRB     r1,[r8,r5]
        0x080015f8:    2900        .)      CMP      r1,#0
        0x080015fa:    d1f8        ..      BNE      0x80015ee ; _printf_core + 274
        0x080015fc:    442e        .D      ADD      r6,r6,r5
        0x080015fe:    e004        ..      B        0x800160a ; _printf_core + 302
        0x08001600:    f8180b01    ....    LDRB     r0,[r8],#1
        0x08001604:    4652        RF      MOV      r2,r10
        0x08001606:    990d        ..      LDR      r1,[sp,#0x34]
        0x08001608:    4790        .G      BLX      r2
        0x0800160a:    1e6d        m.      SUBS     r5,r5,#1
        0x0800160c:    d2f8        ..      BCS      0x8001600 ; _printf_core + 292
        0x0800160e:    e077        w.      B        0x8001700 ; _printf_core + 548
        0x08001610:    2000        .       MOVS     r0,#0
        0x08001612:    900a        ..      STR      r0,[sp,#0x28]
        0x08001614:    f3c55002    ...P    UBFX     r0,r5,#20,#3
        0x08001618:    f04f0b0a    O...    MOV      r11,#0xa
        0x0800161c:    2802        .(      CMP      r0,#2
        0x0800161e:    d00c        ..      BEQ      0x800163a ; _printf_core + 350
        0x08001620:    cf01        ..      LDM      r7!,{r0}
        0x08001622:    17c1        ..      ASRS     r1,r0,#31
        0x08001624:    1e02        ..      SUBS     r2,r0,#0
        0x08001626:    f1710200    q...    SBCS     r2,r1,#0
        0x0800162a:    da0c        ..      BGE      0x8001646 ; _printf_core + 362
        0x0800162c:    2300        .#      MOVS     r3,#0
        0x0800162e:    ebd00003    ....    RSBS     r0,r0,r3
        0x08001632:    eb630101    c...    SBC      r1,r3,r1
        0x08001636:    222d        -"      MOVS     r2,#0x2d
        0x08001638:    e008        ..      B        0x800164c ; _printf_core + 368
        0x0800163a:    1dff        ..      ADDS     r7,r7,#7
        0x0800163c:    f0270707    '...    BIC      r7,r7,#7
        0x08001640:    e8f70102    ....    LDRD     r0,r1,[r7],#8
        0x08001644:    e7ee        ..      B        0x8001624 ; _printf_core + 328
        0x08001646:    052a        *.      LSLS     r2,r5,#20
        0x08001648:    d504        ..      BPL      0x8001654 ; _printf_core + 376
        0x0800164a:    222b        +"      MOVS     r2,#0x2b
        0x0800164c:    f88d2024    ..$     STRB     r2,[sp,#0x24]
        0x08001650:    2201        ."      MOVS     r2,#1
        0x08001652:    e003        ..      B        0x800165c ; _printf_core + 384
        0x08001654:    07ea        ..      LSLS     r2,r5,#31
        0x08001656:    d00f        ..      BEQ      0x8001678 ; _printf_core + 412
        0x08001658:    2220         "      MOVS     r2,#0x20
        0x0800165a:    e7f7        ..      B        0x800164c ; _printf_core + 368
        0x0800165c:    f10d0820    .. .    ADD      r8,sp,#0x20
        0x08001660:    9208        ..      STR      r2,[sp,#0x20]
        0x08001662:    e018        ..      B        0x8001696 ; _printf_core + 442
        0x08001664:    2000        .       MOVS     r0,#0
        0x08001666:    900a        ..      STR      r0,[sp,#0x28]
        0x08001668:    f3c55002    ...P    UBFX     r0,r5,#20,#3
        0x0800166c:    f04f0b0a    O...    MOV      r11,#0xa
        0x08001670:    2802        .(      CMP      r0,#2
        0x08001672:    d003        ..      BEQ      0x800167c ; _printf_core + 416
        0x08001674:    cf01        ..      LDM      r7!,{r0}
        0x08001676:    2100        .!      MOVS     r1,#0
        0x08001678:    2200        ."      MOVS     r2,#0
        0x0800167a:    e7ef        ..      B        0x800165c ; _printf_core + 384
        0x0800167c:    1dff        ..      ADDS     r7,r7,#7
        0x0800167e:    f0270707    '...    BIC      r7,r7,#7
        0x08001682:    e8f70102    ....    LDRD     r0,r1,[r7],#8
        0x08001686:    e7f7        ..      B        0x8001678 ; _printf_core + 412
        0x08001688:    465a        ZF      MOV      r2,r11
        0x0800168a:    9b0a        ..      LDR      r3,[sp,#0x28]
        0x0800168c:    f7fefe02    ....    BL       __aeabi_uldivmod ; 0x8000294
        0x08001690:    3230        02      ADDS     r2,r2,#0x30
        0x08001692:    f8082d01    ...-    STRB     r2,[r8,#-1]!
        0x08001696:    ea500201    P...    ORRS     r2,r0,r1
        0x0800169a:    d1f5        ..      BNE      0x8001688 ; _printf_core + 428
        0x0800169c:    ebad0008    ....    SUB      r0,sp,r8
        0x080016a0:    f1000b20    .. .    ADD      r11,r0,#0x20
        0x080016a4:    0768        h.      LSLS     r0,r5,#29
        0x080016a6:    d401        ..      BMI      0x80016ac ; _printf_core + 464
        0x080016a8:    f04f0901    O...    MOV      r9,#1
        0x080016ac:    45d9        .E      CMP      r9,r11
        0x080016ae:    dd02        ..      BLE      0x80016b6 ; _printf_core + 474
        0x080016b0:    eba9000b    ....    SUB      r0,r9,r11
        0x080016b4:    e000        ..      B        0x80016b8 ; _printf_core + 476
        0x080016b6:    2000        .       MOVS     r0,#0
        0x080016b8:    4681        .F      MOV      r9,r0
        0x080016ba:    2500        .%      MOVS     r5,#0
        0x080016bc:    e006        ..      B        0x80016cc ; _printf_core + 496
        0x080016be:    a809        ..      ADD      r0,sp,#0x24
        0x080016c0:    4652        RF      MOV      r2,r10
        0x080016c2:    5d40        @]      LDRB     r0,[r0,r5]
        0x080016c4:    990d        ..      LDR      r1,[sp,#0x34]
        0x080016c6:    4790        .G      BLX      r2
        0x080016c8:    1c6d        m.      ADDS     r5,r5,#1
        0x080016ca:    1c76        v.      ADDS     r6,r6,#1
        0x080016cc:    9808        ..      LDR      r0,[sp,#0x20]
        0x080016ce:    4285        .B      CMP      r5,r0
        0x080016d0:    dbf5        ..      BLT      0x80016be ; _printf_core + 482
        0x080016d2:    e004        ..      B        0x80016de ; _printf_core + 514
        0x080016d4:    2030        0       MOVS     r0,#0x30
        0x080016d6:    4652        RF      MOV      r2,r10
        0x080016d8:    990d        ..      LDR      r1,[sp,#0x34]
        0x080016da:    4790        .G      BLX      r2
        0x080016dc:    1c76        v.      ADDS     r6,r6,#1
        0x080016de:    f1b90100    ....    SUBS     r1,r9,#0
        0x080016e2:    f1a90901    ....    SUB      r9,r9,#1
        0x080016e6:    dcf5        ..      BGT      0x80016d4 ; _printf_core + 504
        0x080016e8:    e005        ..      B        0x80016f6 ; _printf_core + 538
        0x080016ea:    f8180b01    ....    LDRB     r0,[r8],#1
        0x080016ee:    4652        RF      MOV      r2,r10
        0x080016f0:    990d        ..      LDR      r1,[sp,#0x34]
        0x080016f2:    4790        .G      BLX      r2
        0x080016f4:    1c76        v.      ADDS     r6,r6,#1
        0x080016f6:    f1bb0100    ....    SUBS     r1,r11,#0
        0x080016fa:    f1ab0b01    ....    SUB      r11,r11,#1
        0x080016fe:    dcf4        ..      BGT      0x80016ea ; _printf_core + 526
        0x08001700:    1c64        d.      ADDS     r4,r4,#1
        0x08001702:    e6fa        ..      B        0x80014fa ; _printf_core + 30
    $d
        0x08001704:    00012809    .(..    DCD    75785
    $t
    i.fputc
    fputc
        0x08001708:    b513        ..      PUSH     {r0,r1,r4,lr}
        0x0800170a:    f04f33ff    O..3    MOV      r3,#0xffffffff
        0x0800170e:    2201        ."      MOVS     r2,#1
        0x08001710:    4669        iF      MOV      r1,sp
        0x08001712:    4802        .H      LDR      r0,[pc,#8] ; [0x800171c] = 0x200000a8
        0x08001714:    f7fffc6c    ..l.    BL       HAL_UART_Transmit ; 0x8000ff0
        0x08001718:    9800        ..      LDR      r0,[sp,#0]
        0x0800171a:    bd1c        ..      POP      {r2-r4,pc}
    $d
        0x0800171c:    200000a8    ...     DCD    536871080
    $t
    i.led_blink
    led_blink
        0x08001720:    e92d47f0    -..G    PUSH     {r4-r10,lr}
        0x08001724:    4604        .F      MOV      r4,r0
        0x08001726:    f04f0900    O...    MOV      r9,#0
        0x0800172a:    2c00        .,      CMP      r4,#0
        0x0800172c:    d00d        ..      BEQ      0x800174a ; led_blink + 42
        0x0800172e:    7820         x      LDRB     r0,[r4,#0]
        0x08001730:    b158        X.      CBZ      r0,0x800174a ; led_blink + 42
        0x08001732:    6866        fh      LDR      r6,[r4,#4]
        0x08001734:    f8d48008    ....    LDR      r8,[r4,#8]
        0x08001738:    68e0        .h      LDR      r0,[r4,#0xc]
        0x0800173a:    b140        @.      CBZ      r0,0x800174e ; led_blink + 46
        0x0800173c:    2801        .(      CMP      r0,#1
        0x0800173e:    d008        ..      BEQ      0x8001752 ; led_blink + 50
        0x08001740:    2802        .(      CMP      r0,#2
        0x08001742:    d00a        ..      BEQ      0x800175a ; led_blink + 58
        0x08001744:    2005        .       MOVS     r0,#5
        0x08001746:    e8bd87f0    ....    POP      {r4-r10,pc}
        0x0800174a:    2004        .       MOVS     r0,#4
        0x0800174c:    e7fb        ..      B        0x8001746 ; led_blink + 38
        0x0800174e:    08b7        ..      LSRS     r7,r6,#2
        0x08001750:    e004        ..      B        0x800175c ; led_blink + 60
        0x08001752:    2003        .       MOVS     r0,#3
        0x08001754:    fbb6f7f0    ....    UDIV     r7,r6,r0
        0x08001758:    e000        ..      B        0x800175c ; led_blink + 60
        0x0800175a:    0877        w.      LSRS     r7,r6,#1
        0x0800175c:    2500        .%      MOVS     r5,#0
        0x0800175e:    e00e        ..      B        0x800177e ; led_blink + 94
        0x08001760:    6920         i      LDR      r0,[r4,#0x10]
        0x08001762:    6800        .h      LDR      r0,[r0,#0]
        0x08001764:    4780        .G      BLX      r0
        0x08001766:    69a0        .i      LDR      r0,[r4,#0x18]
        0x08001768:    6801        .h      LDR      r1,[r0,#0]
        0x0800176a:    4638        8F      MOV      r0,r7
        0x0800176c:    4788        .G      BLX      r1
        0x0800176e:    6920         i      LDR      r0,[r4,#0x10]
        0x08001770:    6840        @h      LDR      r0,[r0,#4]
        0x08001772:    4780        .G      BLX      r0
        0x08001774:    69a1        .i      LDR      r1,[r4,#0x18]
        0x08001776:    1bf0        ..      SUBS     r0,r6,r7
        0x08001778:    6809        .h      LDR      r1,[r1,#0]
        0x0800177a:    4788        .G      BLX      r1
        0x0800177c:    1c6d        m.      ADDS     r5,r5,#1
        0x0800177e:    4545        EE      CMP      r5,r8
        0x08001780:    d3ee        ..      BCC      0x8001760 ; led_blink + 64
        0x08001782:    4648        HF      MOV      r0,r9
        0x08001784:    e7df        ..      B        0x8001746 ; led_blink + 38
    i.led_control
    led_control
        0x08001786:    b570        p.      PUSH     {r4-r6,lr}
        0x08001788:    2400        .$      MOVS     r4,#0
        0x0800178a:    2800        .(      CMP      r0,#0
        0x0800178c:    d00f        ..      BEQ      0x80017ae ; led_control + 40
        0x0800178e:    7805        .x      LDRB     r5,[r0,#0]
        0x08001790:    b16d        m.      CBZ      r5,0x80017ae ; led_control + 40
        0x08001792:    f2427510    B..u    MOV      r5,#0x2710
        0x08001796:    42a9        .B      CMP      r1,r5
        0x08001798:    d807        ..      BHI      0x80017aa ; led_control + 36
        0x0800179a:    f5b27f7a    ..z.    CMP      r2,#0x3e8
        0x0800179e:    d804        ..      BHI      0x80017aa ; led_control + 36
        0x080017a0:    b13b        ;.      CBZ      r3,0x80017b2 ; led_control + 44
        0x080017a2:    2b01        .+      CMP      r3,#1
        0x080017a4:    d005        ..      BEQ      0x80017b2 ; led_control + 44
        0x080017a6:    2b02        .+      CMP      r3,#2
        0x080017a8:    d003        ..      BEQ      0x80017b2 ; led_control + 44
        0x080017aa:    2004        .       MOVS     r0,#4
        0x080017ac:    bd70        p.      POP      {r4-r6,pc}
        0x080017ae:    2004        .       MOVS     r0,#4
        0x080017b0:    bd70        p.      POP      {r4-r6,pc}
        0x080017b2:    6041        A`      STR      r1,[r0,#4]
        0x080017b4:    6082        .`      STR      r2,[r0,#8]
        0x080017b6:    60c3        .`      STR      r3,[r0,#0xc]
        0x080017b8:    f7ffffb2    ....    BL       led_blink ; 0x8001720
        0x080017bc:    4620         F      MOV      r0,r4
        0x080017be:    bd70        p.      POP      {r4-r6,pc}
    i.led_driver_init
    led_driver_init
        0x080017c0:    b538        8.      PUSH     {r3-r5,lr}
        0x080017c2:    4604        .F      MOV      r4,r0
        0x080017c4:    2c00        .,      CMP      r4,#0
        0x080017c6:    d00f        ..      BEQ      0x80017e8 ; led_driver_init + 40
        0x080017c8:    6920         i      LDR      r0,[r4,#0x10]
        0x080017ca:    6840        @h      LDR      r0,[r0,#4]
        0x080017cc:    4780        .G      BLX      r0
        0x080017ce:    69a0        .i      LDR      r0,[r4,#0x18]
        0x080017d0:    6801        .h      LDR      r1,[r0,#0]
        0x080017d2:    f44f7016    O..p    MOV      r0,#0x258
        0x080017d6:    4788        .G      BLX      r1
        0x080017d8:    2500        .%      MOVS     r5,#0
        0x080017da:    9500        ..      STR      r5,[sp,#0]
        0x080017dc:    6960        `i      LDR      r0,[r4,#0x14]
        0x080017de:    6801        .h      LDR      r1,[r0,#0]
        0x080017e0:    4668        hF      MOV      r0,sp
        0x080017e2:    4788        .G      BLX      r1
        0x080017e4:    4628        (F      MOV      r0,r5
        0x080017e6:    bd38        8.      POP      {r3-r5,pc}
        0x080017e8:    2004        .       MOVS     r0,#4
        0x080017ea:    bd38        8.      POP      {r3-r5,pc}
    i.led_driver_inst
    led_driver_inst
        0x080017ec:    b570        p.      PUSH     {r4-r6,lr}
        0x080017ee:    4604        .F      MOV      r4,r0
        0x080017f0:    2c00        .,      CMP      r4,#0
        0x080017f2:    d017        ..      BEQ      0x8001824 ; led_driver_inst + 56
        0x080017f4:    b1b1        ..      CBZ      r1,0x8001824 ; led_driver_inst + 56
        0x080017f6:    b1ab        ..      CBZ      r3,0x8001824 ; led_driver_inst + 56
        0x080017f8:    b1a2        ..      CBZ      r2,0x8001824 ; led_driver_inst + 56
        0x080017fa:    7820         x      LDRB     r0,[r4,#0]
        0x080017fc:    2801        .(      CMP      r0,#1
        0x080017fe:    d013        ..      BEQ      0x8001828 ; led_driver_inst + 60
        0x08001800:    6121        !a      STR      r1,[r4,#0x10]
        0x08001802:    61a2        .a      STR      r2,[r4,#0x18]
        0x08001804:    6163        ca      STR      r3,[r4,#0x14]
        0x08001806:    480b        .H      LDR      r0,[pc,#44] ; [0x8001834] = 0x8001787
        0x08001808:    61e0        .a      STR      r0,[r4,#0x1c]
        0x0800180a:    2500        .%      MOVS     r5,#0
        0x0800180c:    60a5        .`      STR      r5,[r4,#8]
        0x0800180e:    6065        e`      STR      r5,[r4,#4]
        0x08001810:    20ff        .       MOVS     r0,#0xff
        0x08001812:    60e0        .`      STR      r0,[r4,#0xc]
        0x08001814:    4620         F      MOV      r0,r4
        0x08001816:    f7ffffd3    ....    BL       led_driver_init ; 0x80017c0
        0x0800181a:    b138        8.      CBZ      r0,0x800182c ; led_driver_inst + 64
        0x0800181c:    6125        %a      STR      r5,[r4,#0x10]
        0x0800181e:    61a5        .a      STR      r5,[r4,#0x18]
        0x08001820:    6165        ea      STR      r5,[r4,#0x14]
        0x08001822:    bd70        p.      POP      {r4-r6,pc}
        0x08001824:    2004        .       MOVS     r0,#4
        0x08001826:    bd70        p.      POP      {r4-r6,pc}
        0x08001828:    2003        .       MOVS     r0,#3
        0x0800182a:    bd70        p.      POP      {r4-r6,pc}
        0x0800182c:    2101        .!      MOVS     r1,#1
        0x0800182e:    7021        !p      STRB     r1,[r4,#0]
        0x08001830:    bd70        p.      POP      {r4-r6,pc}
    $d
        0x08001832:    0000        ..      DCW    0
        0x08001834:    08001787    ....    DCD    134223751
    $t
    i.led_off_myown
    led_off_myown
        0x08001838:    b510        ..      PUSH     {r4,lr}
        0x0800183a:    a002        ..      ADR      r0,{pc}+0xa ; 0x8001844
        0x0800183c:    f7fffe1e    ....    BL       __0printf$4 ; 0x800147c
        0x08001840:    2000        .       MOVS     r0,#0
        0x08001842:    bd10        ..      POP      {r4,pc}
    $d
        0x08001844:    2044454c    LED     DCD    541345100
        0x08001848:    0d46464f    OFF.    DCD    222709327
        0x0800184c:    0000000a    ....    DCD    10
    $t
    i.led_on_myown
    led_on_myown
        0x08001850:    b510        ..      PUSH     {r4,lr}
        0x08001852:    a002        ..      ADR      r0,{pc}+0xa ; 0x800185c
        0x08001854:    f7fffe12    ....    BL       __0printf$4 ; 0x800147c
        0x08001858:    2000        .       MOVS     r0,#0
        0x0800185a:    bd10        ..      POP      {r4,pc}
    $d
        0x0800185c:    2044454c    LED     DCD    541345100
        0x08001860:    0a0d4e4f    ON..    DCD    168644175
        0x08001864:    00000000    ....    DCD    0
    $t
    i.main
    main
        0x08001868:    f7fefe80    ....    BL       HAL_Init ; 0x800056c
        0x0800186c:    f7fffca0    ....    BL       SystemClock_Config ; 0x80011b0
        0x08001870:    f7fffc2a    ..*.    BL       MX_GPIO_Init ; 0x80010c8
        0x08001874:    f7fffc46    ..F.    BL       MX_USART1_UART_Init ; 0x8001104
        0x08001878:    f000f814    ....    BL       osKernelInitialize ; 0x80018a4
        0x0800187c:    f7fffc14    ....    BL       MX_FREERTOS_Init ; 0x80010a8
        0x08001880:    f000f824    ..$.    BL       osKernelStart ; 0x80018cc
        0x08001884:    e7fe        ..      B        0x8001884 ; main + 28
    i.osDelay
    osDelay
        0x08001886:    b510        ..      PUSH     {r4,lr}
        0x08001888:    f3ef8105    ....    MRS      r1,IPSR
        0x0800188c:    2900        .)      CMP      r1,#0
        0x0800188e:    d002        ..      BEQ      0x8001896 ; osDelay + 16
        0x08001890:    f06f0405    o...    MVN      r4,#5
        0x08001894:    e003        ..      B        0x800189e ; osDelay + 24
        0x08001896:    2400        .$      MOVS     r4,#0
        0x08001898:    b108        ..      CBZ      r0,0x800189e ; osDelay + 24
        0x0800189a:    f000fe85    ....    BL       vTaskDelay ; 0x80025a8
        0x0800189e:    4620         F      MOV      r0,r4
        0x080018a0:    bd10        ..      POP      {r4,pc}
        0x080018a2:    0000        ..      MOVS     r0,r0
    i.osKernelInitialize
    osKernelInitialize
        0x080018a4:    f3ef8005    ....    MRS      r0,IPSR
        0x080018a8:    2800        .(      CMP      r0,#0
        0x080018aa:    d002        ..      BEQ      0x80018b2 ; osKernelInitialize + 14
        0x080018ac:    f06f0005    o...    MVN      r0,#5
        0x080018b0:    4770        pG      BX       lr
        0x080018b2:    4805        .H      LDR      r0,[pc,#20] ; [0x80018c8] = 0x20000074
        0x080018b4:    6801        .h      LDR      r1,[r0,#0]
        0x080018b6:    b111        ..      CBZ      r1,0x80018be ; osKernelInitialize + 26
        0x080018b8:    f04f30ff    O..0    MOV      r0,#0xffffffff
        0x080018bc:    4770        pG      BX       lr
        0x080018be:    2101        .!      MOVS     r1,#1
        0x080018c0:    6001        .`      STR      r1,[r0,#0]
        0x080018c2:    2000        .       MOVS     r0,#0
        0x080018c4:    4770        pG      BX       lr
    $d
        0x080018c6:    0000        ..      DCW    0
        0x080018c8:    20000074    t..     DCD    536871028
    $t
    i.osKernelStart
    osKernelStart
        0x080018cc:    b510        ..      PUSH     {r4,lr}
        0x080018ce:    f3ef8005    ....    MRS      r0,IPSR
        0x080018d2:    2800        .(      CMP      r0,#0
        0x080018d4:    d002        ..      BEQ      0x80018dc ; osKernelStart + 16
        0x080018d6:    f06f0005    o...    MVN      r0,#5
        0x080018da:    bd10        ..      POP      {r4,pc}
        0x080018dc:    4807        .H      LDR      r0,[pc,#28] ; [0x80018fc] = 0x20000074
        0x080018de:    6801        .h      LDR      r1,[r0,#0]
        0x080018e0:    2901        .)      CMP      r1,#1
        0x080018e2:    d002        ..      BEQ      0x80018ea ; osKernelStart + 30
        0x080018e4:    f04f30ff    O..0    MOV      r0,#0xffffffff
        0x080018e8:    bd10        ..      POP      {r4,pc}
        0x080018ea:    4a05        .J      LDR      r2,[pc,#20] ; [0x8001900] = 0xe000ed1f
        0x080018ec:    2100        .!      MOVS     r1,#0
        0x080018ee:    7011        .p      STRB     r1,[r2,#0]
        0x080018f0:    2102        .!      MOVS     r1,#2
        0x080018f2:    6001        .`      STR      r1,[r0,#0]
        0x080018f4:    f000fec6    ....    BL       vTaskStartScheduler ; 0x8002684
        0x080018f8:    2000        .       MOVS     r0,#0
        0x080018fa:    bd10        ..      POP      {r4,pc}
    $d
        0x080018fc:    20000074    t..     DCD    536871028
        0x08001900:    e000ed1f    ....    DCD    3758157087
    $t
    i.osThreadNew
    osThreadNew
        0x08001904:    e92d47ff    -..G    PUSH     {r0-r10,lr}
        0x08001908:    460b        .F      MOV      r3,r1
        0x0800190a:    f04f0800    O...    MOV      r8,#0
        0x0800190e:    f8cd800c    ....    STR      r8,[sp,#0xc]
        0x08001912:    f3ef8105    ....    MRS      r1,IPSR
        0x08001916:    bb99        ..      CBNZ     r1,0x8001980 ; osThreadNew + 124
        0x08001918:    b390        ..      CBZ      r0,0x8001980 ; osThreadNew + 124
        0x0800191a:    2680        .&      MOVS     r6,#0x80
        0x0800191c:    2418        .$      MOVS     r4,#0x18
        0x0800191e:    2500        .%      MOVS     r5,#0
        0x08001920:    1e69        i.      SUBS     r1,r5,#1
        0x08001922:    b372        r.      CBZ      r2,0x8001982 ; osThreadNew + 126
        0x08001924:    6817        .h      LDR      r7,[r2,#0]
        0x08001926:    b107        ..      CBZ      r7,0x800192a ; osThreadNew + 38
        0x08001928:    463d        =F      MOV      r5,r7
        0x0800192a:    6997        .i      LDR      r7,[r2,#0x18]
        0x0800192c:    b107        ..      CBZ      r7,0x8001930 ; osThreadNew + 44
        0x0800192e:    463c        <F      MOV      r4,r7
        0x08001930:    1e67        g.      SUBS     r7,r4,#1
        0x08001932:    2f38        8/      CMP      r7,#0x38
        0x08001934:    d202        ..      BCS      0x800193c ; osThreadNew + 56
        0x08001936:    7917        .y      LDRB     r7,[r2,#4]
        0x08001938:    07ff        ..      LSLS     r7,r7,#31
        0x0800193a:    d003        ..      BEQ      0x8001944 ; osThreadNew + 64
        0x0800193c:    2000        .       MOVS     r0,#0
        0x0800193e:    b004        ..      ADD      sp,sp,#0x10
        0x08001940:    e8bd87f0    ....    POP      {r4-r10,pc}
        0x08001944:    6957        Wi      LDR      r7,[r2,#0x14]
        0x08001946:    b107        ..      CBZ      r7,0x800194a ; osThreadNew + 70
        0x08001948:    08be        ..      LSRS     r6,r7,#2
        0x0800194a:    f8d2c008    ....    LDR      r12,[r2,#8]
        0x0800194e:    f1bc0f00    ....    CMP      r12,#0
        0x08001952:    d00c        ..      BEQ      0x800196e ; osThreadNew + 106
        0x08001954:    f8d2900c    ....    LDR      r9,[r2,#0xc]
        0x08001958:    f1b90f5c    ..\.    CMP      r9,#0x5c
        0x0800195c:    d307        ..      BCC      0x800196e ; osThreadNew + 106
        0x0800195e:    f8d29010    ....    LDR      r9,[r2,#0x10]
        0x08001962:    f1b90f00    ....    CMP      r9,#0
        0x08001966:    d002        ..      BEQ      0x800196e ; osThreadNew + 106
        0x08001968:    b10f        ..      CBZ      r7,0x800196e ; osThreadNew + 106
        0x0800196a:    2101        .!      MOVS     r1,#1
        0x0800196c:    e00b        ..      B        0x8001986 ; osThreadNew + 130
        0x0800196e:    f1bc0f00    ....    CMP      r12,#0
        0x08001972:    d108        ..      BNE      0x8001986 ; osThreadNew + 130
        0x08001974:    68d7        .h      LDR      r7,[r2,#0xc]
        0x08001976:    b937        7.      CBNZ     r7,0x8001986 ; osThreadNew + 130
        0x08001978:    6917        .i      LDR      r7,[r2,#0x10]
        0x0800197a:    b927        '.      CBNZ     r7,0x8001986 ; osThreadNew + 130
        0x0800197c:    2100        .!      MOVS     r1,#0
        0x0800197e:    e002        ..      B        0x8001986 ; osThreadNew + 130
        0x08001980:    e01b        ..      B        0x80019ba ; osThreadNew + 182
        0x08001982:    e7ff        ..      B        0x8001984 ; osThreadNew + 128
        0x08001984:    2100        .!      MOVS     r1,#0
        0x08001986:    2901        .)      CMP      r1,#1
        0x08001988:    d001        ..      BEQ      0x800198e ; osThreadNew + 138
        0x0800198a:    b159        Y.      CBZ      r1,0x80019a4 ; osThreadNew + 160
        0x0800198c:    e015        ..      B        0x80019ba ; osThreadNew + 182
        0x0800198e:    6891        .h      LDR      r1,[r2,#8]
        0x08001990:    6912        .i      LDR      r2,[r2,#0x10]
        0x08001992:    9102        ..      STR      r1,[sp,#8]
        0x08001994:    e9cd4200    ...B    STRD     r4,r2,[sp,#0]
        0x08001998:    4632        2F      MOV      r2,r6
        0x0800199a:    4629        )F      MOV      r1,r5
        0x0800199c:    f001fa22    ..".    BL       xTaskCreateStatic ; 0x8002de4
        0x080019a0:    9003        ..      STR      r0,[sp,#0xc]
        0x080019a2:    e00a        ..      B        0x80019ba ; osThreadNew + 182
        0x080019a4:    a903        ..      ADD      r1,sp,#0xc
        0x080019a6:    e9cd4100    ...A    STRD     r4,r1,[sp,#0]
        0x080019aa:    b2b2        ..      UXTH     r2,r6
        0x080019ac:    4629        )F      MOV      r1,r5
        0x080019ae:    f001f9e7    ....    BL       xTaskCreate ; 0x8002d80
        0x080019b2:    2801        .(      CMP      r0,#1
        0x080019b4:    d001        ..      BEQ      0x80019ba ; osThreadNew + 182
        0x080019b6:    f8cd800c    ....    STR      r8,[sp,#0xc]
        0x080019ba:    9803        ..      LDR      r0,[sp,#0xc]
        0x080019bc:    e7bf        ..      B        0x800193e ; osThreadNew + 58
        0x080019be:    0000        ..      MOVS     r0,r0
    i.pf_get_time_ms_myown
    pf_get_time_ms_myown
        0x080019c0:    b510        ..      PUSH     {r4,lr}
        0x080019c2:    4604        .F      MOV      r4,r0
        0x080019c4:    f7fefdc4    ....    BL       HAL_GetTick ; 0x8000550
        0x080019c8:    4601        .F      MOV      r1,r0
        0x080019ca:    a004        ..      ADR      r0,{pc}+0x12 ; 0x80019dc
        0x080019cc:    f7fffd56    ..V.    BL       __0printf$4 ; 0x800147c
        0x080019d0:    f7fefdbe    ....    BL       HAL_GetTick ; 0x8000550
        0x080019d4:    6020         `      STR      r0,[r4,#0]
        0x080019d6:    2000        .       MOVS     r0,#0
        0x080019d8:    bd10        ..      POP      {r4,pc}
    $d
        0x080019da:    0000        ..      DCW    0
        0x080019dc:    20746567    get     DCD    544499047
        0x080019e0:    656d6974    time    DCD    1701669236
        0x080019e4:    776f6e20     now    DCD    2003791392
        0x080019e8:    6c255b20     [%l    DCD    1814387488
        0x080019ec:    736d5d75    u]ms    DCD    1936547189
        0x080019f0:    00000a0d    ....    DCD    2573
    $t
    i.pf_os_delay_ms_myown
    pf_os_delay_ms_myown
        0x080019f4:    b510        ..      PUSH     {r4,lr}
        0x080019f6:    4604        .F      MOV      r4,r0
        0x080019f8:    4620         F      MOV      r0,r4
        0x080019fa:    f7ffff44    ..D.    BL       osDelay ; 0x8001886
        0x080019fe:    4621        !F      MOV      r1,r4
        0x08001a00:    a002        ..      ADR      r0,{pc}+0xc ; 0x8001a0c
        0x08001a02:    f7fffd3b    ..;.    BL       __0printf$4 ; 0x800147c
        0x08001a06:    2000        .       MOVS     r0,#0
        0x08001a08:    bd10        ..      POP      {r4,pc}
    $d
        0x08001a0a:    0000        ..      DCW    0
        0x08001a0c:    616c6564    dela    DCD    1634493796
        0x08001a10:    255b2079    y [%    DCD    626729081
        0x08001a14:    736d5d64    d]ms    DCD    1936547172
        0x08001a18:    6e696620     fin    DCD    1852401184
        0x08001a1c:    65687369    ishe    DCD    1701344105
        0x08001a20:    000a0d64    d...    DCD    658788
    $t
    i.prvAddCurrentTaskToDelayedList
    prvAddCurrentTaskToDelayedList
        0x08001a24:    e92d41f0    -..A    PUSH     {r4-r8,lr}
        0x08001a28:    4604        .F      MOV      r4,r0
        0x08001a2a:    460f        .F      MOV      r7,r1
        0x08001a2c:    4e13        .N      LDR      r6,[pc,#76] ; [0x8001a7c] = 0x20000024
        0x08001a2e:    68f5        .h      LDR      r5,[r6,#0xc]
        0x08001a30:    6830        0h      LDR      r0,[r6,#0]
        0x08001a32:    1d00        ..      ADDS     r0,r0,#4
        0x08001a34:    f000fc82    ....    BL       uxListRemove ; 0x800233c
        0x08001a38:    1c60        `.      ADDS     r0,r4,#1
        0x08001a3a:    d107        ..      BNE      0x8001a4c ; prvAddCurrentTaskToDelayedList + 40
        0x08001a3c:    b137        7.      CBZ      r7,0x8001a4c ; prvAddCurrentTaskToDelayedList + 40
        0x08001a3e:    6831        1h      LDR      r1,[r6,#0]
        0x08001a40:    e8bd41f0    ...A    POP      {r4-r8,lr}
        0x08001a44:    1d09        ..      ADDS     r1,r1,#4
        0x08001a46:    480e        .H      LDR      r0,[pc,#56] ; [0x8001a80] = 0x2000064c
        0x08001a48:    f000bcc8    ....    B.W      vListInsertEnd ; 0x80023dc
        0x08001a4c:    442c        ,D      ADD      r4,r4,r5
        0x08001a4e:    6830        0h      LDR      r0,[r6,#0]
        0x08001a50:    6044        D`      STR      r4,[r0,#4]
        0x08001a52:    42ac        .B      CMP      r4,r5
        0x08001a54:    d206        ..      BCS      0x8001a64 ; prvAddCurrentTaskToDelayedList + 64
        0x08001a56:    6831        1h      LDR      r1,[r6,#0]
        0x08001a58:    6bb0        .k      LDR      r0,[r6,#0x38]
        0x08001a5a:    1d09        ..      ADDS     r1,r1,#4
        0x08001a5c:    e8bd41f0    ...A    POP      {r4-r8,lr}
        0x08001a60:    f000bca4    ....    B.W      vListInsert ; 0x80023ac
        0x08001a64:    6831        1h      LDR      r1,[r6,#0]
        0x08001a66:    6b70        pk      LDR      r0,[r6,#0x34]
        0x08001a68:    1d09        ..      ADDS     r1,r1,#4
        0x08001a6a:    f000fc9f    ....    BL       vListInsert ; 0x80023ac
        0x08001a6e:    6ab0        .j      LDR      r0,[r6,#0x28]
        0x08001a70:    4284        .B      CMP      r4,r0
        0x08001a72:    d200        ..      BCS      0x8001a76 ; prvAddCurrentTaskToDelayedList + 82
        0x08001a74:    62b4        .b      STR      r4,[r6,#0x28]
        0x08001a76:    e8bd81f0    ....    POP      {r4-r8,pc}
    $d
        0x08001a7a:    0000        ..      DCW    0
        0x08001a7c:    20000024    $..     DCD    536870948
        0x08001a80:    2000064c    L..     DCD    536872524
    $t
    i.prvAddNewTaskToReadyList
    prvAddNewTaskToReadyList
        0x08001a84:    b570        p.      PUSH     {r4-r6,lr}
        0x08001a86:    4604        .F      MOV      r4,r0
        0x08001a88:    f000fcb4    ....    BL       vPortEnterCritical ; 0x80023f4
        0x08001a8c:    4d1c        .M      LDR      r5,[pc,#112] ; [0x8001b00] = 0x20000024
        0x08001a8e:    68a8        .h      LDR      r0,[r5,#8]
        0x08001a90:    1c40        @.      ADDS     r0,r0,#1
        0x08001a92:    60a8        .`      STR      r0,[r5,#8]
        0x08001a94:    6828        (h      LDR      r0,[r5,#0]
        0x08001a96:    b110        ..      CBZ      r0,0x8001a9e ; prvAddNewTaskToReadyList + 26
        0x08001a98:    6968        hi      LDR      r0,[r5,#0x14]
        0x08001a9a:    b138        8.      CBZ      r0,0x8001aac ; prvAddNewTaskToReadyList + 40
        0x08001a9c:    e00c        ..      B        0x8001ab8 ; prvAddNewTaskToReadyList + 52
        0x08001a9e:    602c        ,`      STR      r4,[r5,#0]
        0x08001aa0:    68a8        .h      LDR      r0,[r5,#8]
        0x08001aa2:    2801        .(      CMP      r0,#1
        0x08001aa4:    d108        ..      BNE      0x8001ab8 ; prvAddNewTaskToReadyList + 52
        0x08001aa6:    f000f999    ....    BL       prvInitialiseTaskLists ; 0x8001ddc
        0x08001aaa:    e005        ..      B        0x8001ab8 ; prvAddNewTaskToReadyList + 52
        0x08001aac:    6828        (h      LDR      r0,[r5,#0]
        0x08001aae:    6ae1        .j      LDR      r1,[r4,#0x2c]
        0x08001ab0:    6ac0        .j      LDR      r0,[r0,#0x2c]
        0x08001ab2:    4288        .B      CMP      r0,r1
        0x08001ab4:    d800        ..      BHI      0x8001ab8 ; prvAddNewTaskToReadyList + 52
        0x08001ab6:    602c        ,`      STR      r4,[r5,#0]
        0x08001ab8:    6a68        hj      LDR      r0,[r5,#0x24]
        0x08001aba:    1c40        @.      ADDS     r0,r0,#1
        0x08001abc:    6268        hb      STR      r0,[r5,#0x24]
        0x08001abe:    6460        `d      STR      r0,[r4,#0x44]
        0x08001ac0:    6ae0        .j      LDR      r0,[r4,#0x2c]
        0x08001ac2:    6929        )i      LDR      r1,[r5,#0x10]
        0x08001ac4:    4288        .B      CMP      r0,r1
        0x08001ac6:    d900        ..      BLS      0x8001aca ; prvAddNewTaskToReadyList + 70
        0x08001ac8:    6128        (a      STR      r0,[r5,#0x10]
        0x08001aca:    490e        .I      LDR      r1,[pc,#56] ; [0x8001b04] = 0x2000019c
        0x08001acc:    eb000080    ....    ADD      r0,r0,r0,LSL #2
        0x08001ad0:    eb010080    ....    ADD      r0,r1,r0,LSL #2
        0x08001ad4:    1d21        !.      ADDS     r1,r4,#4
        0x08001ad6:    f000fc81    ....    BL       vListInsertEnd ; 0x80023dc
        0x08001ada:    f000fcab    ....    BL       vPortExitCritical ; 0x8002434
        0x08001ade:    6968        hi      LDR      r0,[r5,#0x14]
        0x08001ae0:    2800        .(      CMP      r0,#0
        0x08001ae2:    d00c        ..      BEQ      0x8001afe ; prvAddNewTaskToReadyList + 122
        0x08001ae4:    6828        (h      LDR      r0,[r5,#0]
        0x08001ae6:    6ae1        .j      LDR      r1,[r4,#0x2c]
        0x08001ae8:    6ac0        .j      LDR      r0,[r0,#0x2c]
        0x08001aea:    4288        .B      CMP      r0,r1
        0x08001aec:    d207        ..      BCS      0x8001afe ; prvAddNewTaskToReadyList + 122
        0x08001aee:    4906        .I      LDR      r1,[pc,#24] ; [0x8001b08] = 0xe000ed04
        0x08001af0:    f04f5080    O..P    MOV      r0,#0x10000000
        0x08001af4:    6008        .`      STR      r0,[r1,#0]
        0x08001af6:    f3bf8f4f    ..O.    DSB      
        0x08001afa:    f3bf8f6f    ..o.    ISB      
        0x08001afe:    bd70        p.      POP      {r4-r6,pc}
    $d
        0x08001b00:    20000024    $..     DCD    536870948
        0x08001b04:    2000019c    ...     DCD    536871324
        0x08001b08:    e000ed04    ....    DCD    3758157060
    $t
    i.prvCheckForValidListAndQueue
    prvCheckForValidListAndQueue
        0x08001b0c:    b538        8.      PUSH     {r3-r5,lr}
        0x08001b0e:    f000fc71    ..q.    BL       vPortEnterCritical ; 0x80023f4
        0x08001b12:    4c10        .L      LDR      r4,[pc,#64] ; [0x8001b54] = 0x20000060
        0x08001b14:    6820         h      LDR      r0,[r4,#0]
        0x08001b16:    b9c8        ..      CBNZ     r0,0x8001b4c ; prvCheckForValidListAndQueue + 64
        0x08001b18:    480f        .H      LDR      r0,[pc,#60] ; [0x8001b58] = 0x20000750
        0x08001b1a:    f000fc39    ..9.    BL       vListInitialise ; 0x8002390
        0x08001b1e:    480e        .H      LDR      r0,[pc,#56] ; [0x8001b58] = 0x20000750
        0x08001b20:    3014        .0      ADDS     r0,r0,#0x14
        0x08001b22:    f000fc35    ..5.    BL       vListInitialise ; 0x8002390
        0x08001b26:    480c        .H      LDR      r0,[pc,#48] ; [0x8001b58] = 0x20000750
        0x08001b28:    60e0        .`      STR      r0,[r4,#0xc]
        0x08001b2a:    3014        .0      ADDS     r0,r0,#0x14
        0x08001b2c:    6120         a      STR      r0,[r4,#0x10]
        0x08001b2e:    4b0a        .K      LDR      r3,[pc,#40] ; [0x8001b58] = 0x20000750
        0x08001b30:    2000        .       MOVS     r0,#0
        0x08001b32:    3bf0        .;      SUBS     r3,r3,#0xf0
        0x08001b34:    9000        ..      STR      r0,[sp,#0]
        0x08001b36:    f1030250    ..P.    ADD      r2,r3,#0x50
        0x08001b3a:    2110        .!      MOVS     r1,#0x10
        0x08001b3c:    200a        .       MOVS     r0,#0xa
        0x08001b3e:    f000feb5    ....    BL       xQueueGenericCreateStatic ; 0x80028ac
        0x08001b42:    6020         `      STR      r0,[r4,#0]
        0x08001b44:    b110        ..      CBZ      r0,0x8001b4c ; prvCheckForValidListAndQueue + 64
        0x08001b46:    a105        ..      ADR      r1,{pc}+0x16 ; 0x8001b5c
        0x08001b48:    f000fcf8    ....    BL       vQueueAddToRegistry ; 0x800253c
        0x08001b4c:    e8bd4038    ..8@    POP      {r3-r5,lr}
        0x08001b50:    f000bc70    ..p.    B.W      vPortExitCritical ; 0x8002434
    $d
        0x08001b54:    20000060    `..     DCD    536871008
        0x08001b58:    20000750    P..     DCD    536872784
        0x08001b5c:    51726d54    TmrQ    DCD    1366453588
        0x08001b60:    00000000    ....    DCD    0
    $t
    i.prvCheckTasksWaitingTermination
    prvCheckTasksWaitingTermination
        0x08001b64:    b570        p.      PUSH     {r4-r6,lr}
        0x08001b66:    4d0c        .M      LDR      r5,[pc,#48] ; [0x8001b98] = 0x20000024
        0x08001b68:    4e0c        .N      LDR      r6,[pc,#48] ; [0x8001b9c] = 0x20000638
        0x08001b6a:    e011        ..      B        0x8001b90 ; prvCheckTasksWaitingTermination + 44
        0x08001b6c:    f000fc42    ..B.    BL       vPortEnterCritical ; 0x80023f4
        0x08001b70:    68f0        .h      LDR      r0,[r6,#0xc]
        0x08001b72:    68c4        .h      LDR      r4,[r0,#0xc]
        0x08001b74:    1d20         .      ADDS     r0,r4,#4
        0x08001b76:    f000fbe1    ....    BL       uxListRemove ; 0x800233c
        0x08001b7a:    68a8        .h      LDR      r0,[r5,#8]
        0x08001b7c:    1e40        @.      SUBS     r0,r0,#1
        0x08001b7e:    60a8        .`      STR      r0,[r5,#8]
        0x08001b80:    6868        hh      LDR      r0,[r5,#4]
        0x08001b82:    1e40        @.      SUBS     r0,r0,#1
        0x08001b84:    6068        h`      STR      r0,[r5,#4]
        0x08001b86:    f000fc55    ..U.    BL       vPortExitCritical ; 0x8002434
        0x08001b8a:    4620         F      MOV      r0,r4
        0x08001b8c:    f000f853    ..S.    BL       prvDeleteTCB ; 0x8001c36
        0x08001b90:    6868        hh      LDR      r0,[r5,#4]
        0x08001b92:    2800        .(      CMP      r0,#0
        0x08001b94:    d1ea        ..      BNE      0x8001b6c ; prvCheckTasksWaitingTermination + 8
        0x08001b96:    bd70        p.      POP      {r4-r6,pc}
    $d
        0x08001b98:    20000024    $..     DCD    536870948
        0x08001b9c:    20000638    8..     DCD    536872504
    $t
    i.prvCopyDataFromQueue
    prvCopyDataFromQueue
        0x08001ba0:    b430        0.      PUSH     {r4,r5}
        0x08001ba2:    460b        .F      MOV      r3,r1
        0x08001ba4:    6c02        .l      LDR      r2,[r0,#0x40]
        0x08001ba6:    2a00        .*      CMP      r2,#0
        0x08001ba8:    d00c        ..      BEQ      0x8001bc4 ; prvCopyDataFromQueue + 36
        0x08001baa:    68c1        .h      LDR      r1,[r0,#0xc]
        0x08001bac:    4411        .D      ADD      r1,r1,r2
        0x08001bae:    60c1        .`      STR      r1,[r0,#0xc]
        0x08001bb0:    6884        .h      LDR      r4,[r0,#8]
        0x08001bb2:    42a1        .B      CMP      r1,r4
        0x08001bb4:    d301        ..      BCC      0x8001bba ; prvCopyDataFromQueue + 26
        0x08001bb6:    6801        .h      LDR      r1,[r0,#0]
        0x08001bb8:    60c1        .`      STR      r1,[r0,#0xc]
        0x08001bba:    68c1        .h      LDR      r1,[r0,#0xc]
        0x08001bbc:    bc30        0.      POP      {r4,r5}
        0x08001bbe:    4618        .F      MOV      r0,r3
        0x08001bc0:    f7febb99    ....    B        __aeabi_memcpy ; 0x80002f6
        0x08001bc4:    bc30        0.      POP      {r4,r5}
        0x08001bc6:    4770        pG      BX       lr
    i.prvCopyDataToQueue
    prvCopyDataToQueue
        0x08001bc8:    e92d41f0    -..A    PUSH     {r4-r8,lr}
        0x08001bcc:    4604        .F      MOV      r4,r0
        0x08001bce:    4617        .F      MOV      r7,r2
        0x08001bd0:    2600        .&      MOVS     r6,#0
        0x08001bd2:    6ba5        .k      LDR      r5,[r4,#0x38]
        0x08001bd4:    6c22        "l      LDR      r2,[r4,#0x40]
        0x08001bd6:    2a00        .*      CMP      r2,#0
        0x08001bd8:    d010        ..      BEQ      0x8001bfc ; prvCopyDataToQueue + 52
        0x08001bda:    b1c7        ..      CBZ      r7,0x8001c0e ; prvCopyDataToQueue + 70
        0x08001bdc:    68e0        .h      LDR      r0,[r4,#0xc]
        0x08001bde:    f7fefb8a    ....    BL       __aeabi_memcpy ; 0x80002f6
        0x08001be2:    68e1        .h      LDR      r1,[r4,#0xc]
        0x08001be4:    6c20         l      LDR      r0,[r4,#0x40]
        0x08001be6:    1a09        ..      SUBS     r1,r1,r0
        0x08001be8:    60e1        .`      STR      r1,[r4,#0xc]
        0x08001bea:    6822        "h      LDR      r2,[r4,#0]
        0x08001bec:    4291        .B      CMP      r1,r2
        0x08001bee:    d202        ..      BCS      0x8001bf6 ; prvCopyDataToQueue + 46
        0x08001bf0:    68a1        .h      LDR      r1,[r4,#8]
        0x08001bf2:    1a08        ..      SUBS     r0,r1,r0
        0x08001bf4:    60e0        .`      STR      r0,[r4,#0xc]
        0x08001bf6:    2f02        ./      CMP      r7,#2
        0x08001bf8:    d016        ..      BEQ      0x8001c28 ; prvCopyDataToQueue + 96
        0x08001bfa:    e017        ..      B        0x8001c2c ; prvCopyDataToQueue + 100
        0x08001bfc:    6820         h      LDR      r0,[r4,#0]
        0x08001bfe:    b9a8        ..      CBNZ     r0,0x8001c2c ; prvCopyDataToQueue + 100
        0x08001c00:    68a0        .h      LDR      r0,[r4,#8]
        0x08001c02:    f001f997    ....    BL       xTaskPriorityDisinherit ; 0x8002f34
        0x08001c06:    4606        .F      MOV      r6,r0
        0x08001c08:    2000        .       MOVS     r0,#0
        0x08001c0a:    60a0        .`      STR      r0,[r4,#8]
        0x08001c0c:    e00e        ..      B        0x8001c2c ; prvCopyDataToQueue + 100
        0x08001c0e:    6860        `h      LDR      r0,[r4,#4]
        0x08001c10:    f7fefb71    ..q.    BL       __aeabi_memcpy ; 0x80002f6
        0x08001c14:    6c21        !l      LDR      r1,[r4,#0x40]
        0x08001c16:    6860        `h      LDR      r0,[r4,#4]
        0x08001c18:    4408        .D      ADD      r0,r0,r1
        0x08001c1a:    6060        ``      STR      r0,[r4,#4]
        0x08001c1c:    68a1        .h      LDR      r1,[r4,#8]
        0x08001c1e:    4288        .B      CMP      r0,r1
        0x08001c20:    d304        ..      BCC      0x8001c2c ; prvCopyDataToQueue + 100
        0x08001c22:    6820         h      LDR      r0,[r4,#0]
        0x08001c24:    6060        ``      STR      r0,[r4,#4]
        0x08001c26:    e001        ..      B        0x8001c2c ; prvCopyDataToQueue + 100
        0x08001c28:    b105        ..      CBZ      r5,0x8001c2c ; prvCopyDataToQueue + 100
        0x08001c2a:    1e6d        m.      SUBS     r5,r5,#1
        0x08001c2c:    1c6d        m.      ADDS     r5,r5,#1
        0x08001c2e:    63a5        .c      STR      r5,[r4,#0x38]
        0x08001c30:    4630        0F      MOV      r0,r6
        0x08001c32:    e8bd81f0    ....    POP      {r4-r8,pc}
    i.prvDeleteTCB
    prvDeleteTCB
        0x08001c36:    b510        ..      PUSH     {r4,lr}
        0x08001c38:    4604        .F      MOV      r4,r0
        0x08001c3a:    f8940059    ..Y.    LDRB     r0,[r4,#0x59]
        0x08001c3e:    2800        .(      CMP      r0,#0
        0x08001c40:    d00b        ..      BEQ      0x8001c5a ; prvDeleteTCB + 36
        0x08001c42:    2801        .(      CMP      r0,#1
        0x08001c44:    d011        ..      BEQ      0x8001c6a ; prvDeleteTCB + 52
        0x08001c46:    2802        .(      CMP      r0,#2
        0x08001c48:    d014        ..      BEQ      0x8001c74 ; prvDeleteTCB + 62
        0x08001c4a:    2050        P       MOVS     r0,#0x50
        0x08001c4c:    f3808811    ....    MSR      BASEPRI,r0
        0x08001c50:    f3bf8f4f    ..O.    DSB      
        0x08001c54:    f3bf8f6f    ..o.    ISB      
        0x08001c58:    e7fe        ..      B        0x8001c58 ; prvDeleteTCB + 34
        0x08001c5a:    6b20         k      LDR      r0,[r4,#0x30]
        0x08001c5c:    f000fc00    ....    BL       vPortFree ; 0x8002460
        0x08001c60:    4620         F      MOV      r0,r4
        0x08001c62:    e8bd4010    ...@    POP      {r4,lr}
        0x08001c66:    f000bbfb    ....    B.W      vPortFree ; 0x8002460
        0x08001c6a:    4620         F      MOV      r0,r4
        0x08001c6c:    e8bd4010    ...@    POP      {r4,lr}
        0x08001c70:    f000bbf6    ....    B.W      vPortFree ; 0x8002460
        0x08001c74:    bd10        ..      POP      {r4,pc}
        0x08001c76:    0000        ..      MOVS     r0,r0
    i.prvGetNextExpireTime
    prvGetNextExpireTime
        0x08001c78:    4907        .I      LDR      r1,[pc,#28] ; [0x8001c98] = 0x20000060
        0x08001c7a:    68ca        .h      LDR      r2,[r1,#0xc]
        0x08001c7c:    6811        .h      LDR      r1,[r2,#0]
        0x08001c7e:    2900        .)      CMP      r1,#0
        0x08001c80:    d004        ..      BEQ      0x8001c8c ; prvGetNextExpireTime + 20
        0x08001c82:    2100        .!      MOVS     r1,#0
        0x08001c84:    6001        .`      STR      r1,[r0,#0]
        0x08001c86:    b119        ..      CBZ      r1,0x8001c90 ; prvGetNextExpireTime + 24
        0x08001c88:    2000        .       MOVS     r0,#0
        0x08001c8a:    4770        pG      BX       lr
        0x08001c8c:    2101        .!      MOVS     r1,#1
        0x08001c8e:    e7f9        ..      B        0x8001c84 ; prvGetNextExpireTime + 12
        0x08001c90:    68d0        .h      LDR      r0,[r2,#0xc]
        0x08001c92:    6800        .h      LDR      r0,[r0,#0]
        0x08001c94:    4770        pG      BX       lr
    $d
        0x08001c96:    0000        ..      DCW    0
        0x08001c98:    20000060    `..     DCD    536871008
    $t
    i.prvHeapInit
    prvHeapInit
        0x08001c9c:    f44f5170    O.pQ    MOV      r1,#0x3c00
        0x08001ca0:    480f        .H      LDR      r0,[pc,#60] ; [0x8001ce0] = 0x20000e30
        0x08001ca2:    0742        B.      LSLS     r2,r0,#29
        0x08001ca4:    d006        ..      BEQ      0x8001cb4 ; prvHeapInit + 24
        0x08001ca6:    1dc0        ..      ADDS     r0,r0,#7
        0x08001ca8:    f0200007     ...    BIC      r0,r0,#7
        0x08001cac:    490c        .I      LDR      r1,[pc,#48] ; [0x8001ce0] = 0x20000e30
        0x08001cae:    1a41        A.      SUBS     r1,r0,r1
        0x08001cb0:    f5c15170    ..pQ    RSB      r1,r1,#0x3c00
        0x08001cb4:    4a0b        .J      LDR      r2,[pc,#44] ; [0x8001ce4] = 0x20000090
        0x08001cb6:    6010        .`      STR      r0,[r2,#0]
        0x08001cb8:    2300        .#      MOVS     r3,#0
        0x08001cba:    6053        S`      STR      r3,[r2,#4]
        0x08001cbc:    4401        .D      ADD      r1,r1,r0
        0x08001cbe:    3908        .9      SUBS     r1,r1,#8
        0x08001cc0:    f0210107    !...    BIC      r1,r1,#7
        0x08001cc4:    3a18        .:      SUBS     r2,r2,#0x18
        0x08001cc6:    6011        .`      STR      r1,[r2,#0]
        0x08001cc8:    604b        K`      STR      r3,[r1,#4]
        0x08001cca:    600b        .`      STR      r3,[r1,#0]
        0x08001ccc:    1a0b        ..      SUBS     r3,r1,r0
        0x08001cce:    6043        C`      STR      r3,[r0,#4]
        0x08001cd0:    6001        .`      STR      r1,[r0,#0]
        0x08001cd2:    6840        @h      LDR      r0,[r0,#4]
        0x08001cd4:    6090        .`      STR      r0,[r2,#8]
        0x08001cd6:    6050        P`      STR      r0,[r2,#4]
        0x08001cd8:    f04f4000    O..@    MOV      r0,#0x80000000
        0x08001cdc:    6150        Pa      STR      r0,[r2,#0x14]
        0x08001cde:    4770        pG      BX       lr
    $d
        0x08001ce0:    20000e30    0..     DCD    536874544
        0x08001ce4:    20000090    ...     DCD    536871056
    $t
    i.prvIdleTask
    prvIdleTask
        0x08001ce8:    4e07        .N      LDR      r6,[pc,#28] ; [0x8001d08] = 0x2000019c
        0x08001cea:    f04f5480    O..T    MOV      r4,#0x10000000
        0x08001cee:    4d07        .M      LDR      r5,[pc,#28] ; [0x8001d0c] = 0xe000ed04
        0x08001cf0:    f7ffff38    ..8.    BL       prvCheckTasksWaitingTermination ; 0x8001b64
        0x08001cf4:    6830        0h      LDR      r0,[r6,#0]
        0x08001cf6:    2801        .(      CMP      r0,#1
        0x08001cf8:    d9fa        ..      BLS      0x8001cf0 ; prvIdleTask + 8
        0x08001cfa:    602c        ,`      STR      r4,[r5,#0]
        0x08001cfc:    f3bf8f4f    ..O.    DSB      
        0x08001d00:    f3bf8f6f    ..o.    ISB      
        0x08001d04:    e7f4        ..      B        0x8001cf0 ; prvIdleTask + 8
    $d
        0x08001d06:    0000        ..      DCW    0
        0x08001d08:    2000019c    ...     DCD    536871324
        0x08001d0c:    e000ed04    ....    DCD    3758157060
    $t
    i.prvInitialiseNewQueue
    prvInitialiseNewQueue
        0x08001d10:    b570        p.      PUSH     {r4-r6,lr}
        0x08001d12:    461d        .F      MOV      r5,r3
        0x08001d14:    9c04        ..      LDR      r4,[sp,#0x10]
        0x08001d16:    2900        .)      CMP      r1,#0
        0x08001d18:    d009        ..      BEQ      0x8001d2e ; prvInitialiseNewQueue + 30
        0x08001d1a:    6022        "`      STR      r2,[r4,#0]
        0x08001d1c:    63e0        .c      STR      r0,[r4,#0x3c]
        0x08001d1e:    6421        !d      STR      r1,[r4,#0x40]
        0x08001d20:    2101        .!      MOVS     r1,#1
        0x08001d22:    4620         F      MOV      r0,r4
        0x08001d24:    f000fdf8    ....    BL       xQueueGenericReset ; 0x8002918
        0x08001d28:    f884504c    ..LP    STRB     r5,[r4,#0x4c]
        0x08001d2c:    bd70        p.      POP      {r4-r6,pc}
        0x08001d2e:    6024        $`      STR      r4,[r4,#0]
        0x08001d30:    e7f4        ..      B        0x8001d1c ; prvInitialiseNewQueue + 12
    i.prvInitialiseNewTask
    prvInitialiseNewTask
        0x08001d32:    e92d5ff0    -.._    PUSH     {r4-r12,lr}
        0x08001d36:    4682        .F      MOV      r10,r0
        0x08001d38:    e9dd590a    ...Y    LDRD     r5,r9,[sp,#0x28]
        0x08001d3c:    9c0c        ..      LDR      r4,[sp,#0x30]
        0x08001d3e:    460e        .F      MOV      r6,r1
        0x08001d40:    4617        .F      MOV      r7,r2
        0x08001d42:    469b        .F      MOV      r11,r3
        0x08001d44:    00b9        ..      LSLS     r1,r7,#2
        0x08001d46:    22a5        ."      MOVS     r2,#0xa5
        0x08001d48:    6b20         k      LDR      r0,[r4,#0x30]
        0x08001d4a:    f7fefae6    ....    BL       __aeabi_memset ; 0x800031a
        0x08001d4e:    6b20         k      LDR      r0,[r4,#0x30]
        0x08001d50:    1e7f        ..      SUBS     r7,r7,#1
        0x08001d52:    eb000087    ....    ADD      r0,r0,r7,LSL #2
        0x08001d56:    f0200707     ...    BIC      r7,r0,#7
        0x08001d5a:    0778        x.      LSLS     r0,r7,#29
        0x08001d5c:    d007        ..      BEQ      0x8001d6e ; prvInitialiseNewTask + 60
        0x08001d5e:    2050        P       MOVS     r0,#0x50
        0x08001d60:    f3808811    ....    MSR      BASEPRI,r0
        0x08001d64:    f3bf8f4f    ..O.    DSB      
        0x08001d68:    f3bf8f6f    ..o.    ISB      
        0x08001d6c:    e7fe        ..      B        0x8001d6c ; prvInitialiseNewTask + 58
        0x08001d6e:    f04f0800    O...    MOV      r8,#0
        0x08001d72:    b166        f.      CBZ      r6,0x8001d8e ; prvInitialiseNewTask + 92
        0x08001d74:    2000        .       MOVS     r0,#0
        0x08001d76:    1822        ".      ADDS     r2,r4,r0
        0x08001d78:    5c31        1\      LDRB     r1,[r6,r0]
        0x08001d7a:    f8821034    ..4.    STRB     r1,[r2,#0x34]
        0x08001d7e:    5c31        1\      LDRB     r1,[r6,r0]
        0x08001d80:    b111        ..      CBZ      r1,0x8001d88 ; prvInitialiseNewTask + 86
        0x08001d82:    1c40        @.      ADDS     r0,r0,#1
        0x08001d84:    2810        .(      CMP      r0,#0x10
        0x08001d86:    d3f6        ..      BCC      0x8001d76 ; prvInitialiseNewTask + 68
        0x08001d88:    f8848043    ..C.    STRB     r8,[r4,#0x43]
        0x08001d8c:    e001        ..      B        0x8001d92 ; prvInitialiseNewTask + 96
        0x08001d8e:    f8848034    ..4.    STRB     r8,[r4,#0x34]
        0x08001d92:    2d38        8-      CMP      r5,#0x38
        0x08001d94:    d300        ..      BCC      0x8001d98 ; prvInitialiseNewTask + 102
        0x08001d96:    2537        7%      MOVS     r5,#0x37
        0x08001d98:    62e5        .b      STR      r5,[r4,#0x2c]
        0x08001d9a:    64e5        .d      STR      r5,[r4,#0x4c]
        0x08001d9c:    f8c48050    ..P.    STR      r8,[r4,#0x50]
        0x08001da0:    1d20         .      ADDS     r0,r4,#4
        0x08001da2:    f000fb00    ....    BL       vListInitialiseItem ; 0x80023a6
        0x08001da6:    f1040018    ....    ADD      r0,r4,#0x18
        0x08001daa:    f000fafc    ....    BL       vListInitialiseItem ; 0x80023a6
        0x08001dae:    6124        $a      STR      r4,[r4,#0x10]
        0x08001db0:    f1c50038    ..8.    RSB      r0,r5,#0x38
        0x08001db4:    61a0        .a      STR      r0,[r4,#0x18]
        0x08001db6:    6264        db      STR      r4,[r4,#0x24]
        0x08001db8:    f8c48054    ..T.    STR      r8,[r4,#0x54]
        0x08001dbc:    f8848058    ..X.    STRB     r8,[r4,#0x58]
        0x08001dc0:    465a        ZF      MOV      r2,r11
        0x08001dc2:    4651        QF      MOV      r1,r10
        0x08001dc4:    4638        8F      MOV      r0,r7
        0x08001dc6:    f000faa7    ....    BL       pxPortInitialiseStack ; 0x8002318
        0x08001dca:    6020         `      STR      r0,[r4,#0]
        0x08001dcc:    f1b90f00    ....    CMP      r9,#0
        0x08001dd0:    d001        ..      BEQ      0x8001dd6 ; prvInitialiseNewTask + 164
        0x08001dd2:    f8c94000    ...@    STR      r4,[r9,#0]
        0x08001dd6:    e8bd9ff0    ....    POP      {r4-r12,pc}
        0x08001dda:    0000        ..      MOVS     r0,r0
    i.prvInitialiseTaskLists
    prvInitialiseTaskLists
        0x08001ddc:    b570        p.      PUSH     {r4-r6,lr}
        0x08001dde:    2400        .$      MOVS     r4,#0
        0x08001de0:    4d11        .M      LDR      r5,[pc,#68] ; [0x8001e28] = 0x2000019c
        0x08001de2:    eb040084    ....    ADD      r0,r4,r4,LSL #2
        0x08001de6:    eb050080    ....    ADD      r0,r5,r0,LSL #2
        0x08001dea:    f000fad1    ....    BL       vListInitialise ; 0x8002390
        0x08001dee:    1c64        d.      ADDS     r4,r4,#1
        0x08001df0:    2c38        8,      CMP      r4,#0x38
        0x08001df2:    d3f6        ..      BCC      0x8001de2 ; prvInitialiseTaskLists + 6
        0x08001df4:    480d        .H      LDR      r0,[pc,#52] ; [0x8001e2c] = 0x200005fc
        0x08001df6:    f000facb    ....    BL       vListInitialise ; 0x8002390
        0x08001dfa:    480c        .H      LDR      r0,[pc,#48] ; [0x8001e2c] = 0x200005fc
        0x08001dfc:    3014        .0      ADDS     r0,r0,#0x14
        0x08001dfe:    f000fac7    ....    BL       vListInitialise ; 0x8002390
        0x08001e02:    480a        .H      LDR      r0,[pc,#40] ; [0x8001e2c] = 0x200005fc
        0x08001e04:    3028        (0      ADDS     r0,r0,#0x28
        0x08001e06:    f000fac3    ....    BL       vListInitialise ; 0x8002390
        0x08001e0a:    4808        .H      LDR      r0,[pc,#32] ; [0x8001e2c] = 0x200005fc
        0x08001e0c:    303c        <0      ADDS     r0,r0,#0x3c
        0x08001e0e:    f000fabf    ....    BL       vListInitialise ; 0x8002390
        0x08001e12:    4806        .H      LDR      r0,[pc,#24] ; [0x8001e2c] = 0x200005fc
        0x08001e14:    3050        P0      ADDS     r0,r0,#0x50
        0x08001e16:    f000fabb    ....    BL       vListInitialise ; 0x8002390
        0x08001e1a:    4805        .H      LDR      r0,[pc,#20] ; [0x8001e30] = 0x20000024
        0x08001e1c:    4903        .I      LDR      r1,[pc,#12] ; [0x8001e2c] = 0x200005fc
        0x08001e1e:    6341        Ac      STR      r1,[r0,#0x34]
        0x08001e20:    3114        .1      ADDS     r1,r1,#0x14
        0x08001e22:    6381        .c      STR      r1,[r0,#0x38]
        0x08001e24:    bd70        p.      POP      {r4-r6,pc}
    $d
        0x08001e26:    0000        ..      DCW    0
        0x08001e28:    2000019c    ...     DCD    536871324
        0x08001e2c:    200005fc    ...     DCD    536872444
        0x08001e30:    20000024    $..     DCD    536870948
    $t
    i.prvInsertBlockIntoFreeList
    prvInsertBlockIntoFreeList
        0x08001e34:    b530        0.      PUSH     {r4,r5,lr}
        0x08001e36:    4913        .I      LDR      r1,[pc,#76] ; [0x8001e84] = 0x20000090
        0x08001e38:    e000        ..      B        0x8001e3c ; prvInsertBlockIntoFreeList + 8
        0x08001e3a:    4611        .F      MOV      r1,r2
        0x08001e3c:    680a        .h      LDR      r2,[r1,#0]
        0x08001e3e:    4282        .B      CMP      r2,r0
        0x08001e40:    d3fb        ..      BCC      0x8001e3a ; prvInsertBlockIntoFreeList + 6
        0x08001e42:    684b        Kh      LDR      r3,[r1,#4]
        0x08001e44:    185c        \.      ADDS     r4,r3,r1
        0x08001e46:    4284        .B      CMP      r4,r0
        0x08001e48:    d103        ..      BNE      0x8001e52 ; prvInsertBlockIntoFreeList + 30
        0x08001e4a:    6840        @h      LDR      r0,[r0,#4]
        0x08001e4c:    4418        .D      ADD      r0,r0,r3
        0x08001e4e:    6048        H`      STR      r0,[r1,#4]
        0x08001e50:    4608        .F      MOV      r0,r1
        0x08001e52:    680d        .h      LDR      r5,[r1,#0]
        0x08001e54:    6844        Dh      LDR      r4,[r0,#4]
        0x08001e56:    1823        #.      ADDS     r3,r4,r0
        0x08001e58:    42ab        .B      CMP      r3,r5
        0x08001e5a:    d10d        ..      BNE      0x8001e78 ; prvInsertBlockIntoFreeList + 68
        0x08001e5c:    4b09        .K      LDR      r3,[pc,#36] ; [0x8001e84] = 0x20000090
        0x08001e5e:    3b18        .;      SUBS     r3,r3,#0x18
        0x08001e60:    681b        .h      LDR      r3,[r3,#0]
        0x08001e62:    429a        .B      CMP      r2,r3
        0x08001e64:    d006        ..      BEQ      0x8001e74 ; prvInsertBlockIntoFreeList + 64
        0x08001e66:    6852        Rh      LDR      r2,[r2,#4]
        0x08001e68:    4422        "D      ADD      r2,r2,r4
        0x08001e6a:    6042        B`      STR      r2,[r0,#4]
        0x08001e6c:    680a        .h      LDR      r2,[r1,#0]
        0x08001e6e:    6812        .h      LDR      r2,[r2,#0]
        0x08001e70:    6002        .`      STR      r2,[r0,#0]
        0x08001e72:    e002        ..      B        0x8001e7a ; prvInsertBlockIntoFreeList + 70
        0x08001e74:    6003        .`      STR      r3,[r0,#0]
        0x08001e76:    e000        ..      B        0x8001e7a ; prvInsertBlockIntoFreeList + 70
        0x08001e78:    6002        .`      STR      r2,[r0,#0]
        0x08001e7a:    4281        .B      CMP      r1,r0
        0x08001e7c:    d000        ..      BEQ      0x8001e80 ; prvInsertBlockIntoFreeList + 76
        0x08001e7e:    6008        .`      STR      r0,[r1,#0]
        0x08001e80:    bd30        0.      POP      {r4,r5,pc}
    $d
        0x08001e82:    0000        ..      DCW    0
        0x08001e84:    20000090    ...     DCD    536871056
    $t
    i.prvInsertTimerInActiveList
    prvInsertTimerInActiveList
        0x08001e88:    b570        p.      PUSH     {r4-r6,lr}
        0x08001e8a:    2400        .$      MOVS     r4,#0
        0x08001e8c:    6041        A`      STR      r1,[r0,#4]
        0x08001e8e:    6100        .a      STR      r0,[r0,#0x10]
        0x08001e90:    4d0c        .M      LDR      r5,[pc,#48] ; [0x8001ec4] = 0x20000060
        0x08001e92:    4291        .B      CMP      r1,r2
        0x08001e94:    d80a        ..      BHI      0x8001eac ; prvInsertTimerInActiveList + 36
        0x08001e96:    1ad1        ..      SUBS     r1,r2,r3
        0x08001e98:    6982        .i      LDR      r2,[r0,#0x18]
        0x08001e9a:    4291        .B      CMP      r1,r2
        0x08001e9c:    d301        ..      BCC      0x8001ea2 ; prvInsertTimerInActiveList + 26
        0x08001e9e:    2401        .$      MOVS     r4,#1
        0x08001ea0:    e00e        ..      B        0x8001ec0 ; prvInsertTimerInActiveList + 56
        0x08001ea2:    1d01        ..      ADDS     r1,r0,#4
        0x08001ea4:    6928        (i      LDR      r0,[r5,#0x10]
        0x08001ea6:    f000fa81    ....    BL       vListInsert ; 0x80023ac
        0x08001eaa:    e009        ..      B        0x8001ec0 ; prvInsertTimerInActiveList + 56
        0x08001eac:    429a        .B      CMP      r2,r3
        0x08001eae:    d203        ..      BCS      0x8001eb8 ; prvInsertTimerInActiveList + 48
        0x08001eb0:    4299        .B      CMP      r1,r3
        0x08001eb2:    d301        ..      BCC      0x8001eb8 ; prvInsertTimerInActiveList + 48
        0x08001eb4:    2401        .$      MOVS     r4,#1
        0x08001eb6:    e003        ..      B        0x8001ec0 ; prvInsertTimerInActiveList + 56
        0x08001eb8:    1d01        ..      ADDS     r1,r0,#4
        0x08001eba:    68e8        .h      LDR      r0,[r5,#0xc]
        0x08001ebc:    f000fa76    ..v.    BL       vListInsert ; 0x80023ac
        0x08001ec0:    4620         F      MOV      r0,r4
        0x08001ec2:    bd70        p.      POP      {r4-r6,pc}
    $d
        0x08001ec4:    20000060    `..     DCD    536871008
    $t
    i.prvIsQueueEmpty
    prvIsQueueEmpty
        0x08001ec8:    b510        ..      PUSH     {r4,lr}
        0x08001eca:    4604        .F      MOV      r4,r0
        0x08001ecc:    f000fa92    ....    BL       vPortEnterCritical ; 0x80023f4
        0x08001ed0:    6ba0        .k      LDR      r0,[r4,#0x38]
        0x08001ed2:    b120         .      CBZ      r0,0x8001ede ; prvIsQueueEmpty + 22
        0x08001ed4:    2400        .$      MOVS     r4,#0
        0x08001ed6:    f000faad    ....    BL       vPortExitCritical ; 0x8002434
        0x08001eda:    4620         F      MOV      r0,r4
        0x08001edc:    bd10        ..      POP      {r4,pc}
        0x08001ede:    2401        .$      MOVS     r4,#1
        0x08001ee0:    e7f9        ..      B        0x8001ed6 ; prvIsQueueEmpty + 14
    i.prvIsQueueFull
    prvIsQueueFull
        0x08001ee2:    b510        ..      PUSH     {r4,lr}
        0x08001ee4:    4604        .F      MOV      r4,r0
        0x08001ee6:    f000fa85    ....    BL       vPortEnterCritical ; 0x80023f4
        0x08001eea:    6ba0        .k      LDR      r0,[r4,#0x38]
        0x08001eec:    6be1        .k      LDR      r1,[r4,#0x3c]
        0x08001eee:    4288        .B      CMP      r0,r1
        0x08001ef0:    d101        ..      BNE      0x8001ef6 ; prvIsQueueFull + 20
        0x08001ef2:    2401        .$      MOVS     r4,#1
        0x08001ef4:    e000        ..      B        0x8001ef8 ; prvIsQueueFull + 22
        0x08001ef6:    2400        .$      MOVS     r4,#0
        0x08001ef8:    f000fa9c    ....    BL       vPortExitCritical ; 0x8002434
        0x08001efc:    4620         F      MOV      r0,r4
        0x08001efe:    bd10        ..      POP      {r4,pc}
    i.prvProcessExpiredTimer
    prvProcessExpiredTimer
        0x08001f00:    b5f8        ..      PUSH     {r3-r7,lr}
        0x08001f02:    4605        .F      MOV      r5,r0
        0x08001f04:    460e        .F      MOV      r6,r1
        0x08001f06:    4817        .H      LDR      r0,[pc,#92] ; [0x8001f64] = 0x20000060
        0x08001f08:    68c0        .h      LDR      r0,[r0,#0xc]
        0x08001f0a:    68c0        .h      LDR      r0,[r0,#0xc]
        0x08001f0c:    68c4        .h      LDR      r4,[r0,#0xc]
        0x08001f0e:    1d20         .      ADDS     r0,r4,#4
        0x08001f10:    f000fa14    ....    BL       uxListRemove ; 0x800233c
        0x08001f14:    f8940028    ..(.    LDRB     r0,[r4,#0x28]
        0x08001f18:    0741        A.      LSLS     r1,r0,#29
        0x08001f1a:    d518        ..      BPL      0x8001f4e ; prvProcessExpiredTimer + 78
        0x08001f1c:    69a0        .i      LDR      r0,[r4,#0x18]
        0x08001f1e:    462b        +F      MOV      r3,r5
        0x08001f20:    1941        A.      ADDS     r1,r0,r5
        0x08001f22:    4632        2F      MOV      r2,r6
        0x08001f24:    4620         F      MOV      r0,r4
        0x08001f26:    f7ffffaf    ....    BL       prvInsertTimerInActiveList ; 0x8001e88
        0x08001f2a:    b1a0        ..      CBZ      r0,0x8001f56 ; prvProcessExpiredTimer + 86
        0x08001f2c:    2000        .       MOVS     r0,#0
        0x08001f2e:    4603        .F      MOV      r3,r0
        0x08001f30:    4601        .F      MOV      r1,r0
        0x08001f32:    9000        ..      STR      r0,[sp,#0]
        0x08001f34:    462a        *F      MOV      r2,r5
        0x08001f36:    4620         F      MOV      r0,r4
        0x08001f38:    f001f90e    ....    BL       xTimerGenericCommand ; 0x8003158
        0x08001f3c:    b958        X.      CBNZ     r0,0x8001f56 ; prvProcessExpiredTimer + 86
        0x08001f3e:    2050        P       MOVS     r0,#0x50
        0x08001f40:    f3808811    ....    MSR      BASEPRI,r0
        0x08001f44:    f3bf8f4f    ..O.    DSB      
        0x08001f48:    f3bf8f6f    ..o.    ISB      
        0x08001f4c:    e7fe        ..      B        0x8001f4c ; prvProcessExpiredTimer + 76
        0x08001f4e:    f0200001     ...    BIC      r0,r0,#1
        0x08001f52:    f8840028    ..(.    STRB     r0,[r4,#0x28]
        0x08001f56:    6a21        !j      LDR      r1,[r4,#0x20]
        0x08001f58:    b001        ..      ADD      sp,sp,#4
        0x08001f5a:    4620         F      MOV      r0,r4
        0x08001f5c:    e8bd40f0    ...@    POP      {r4-r7,lr}
        0x08001f60:    4708        .G      BX       r1
    $d
        0x08001f62:    0000        ..      DCW    0
        0x08001f64:    20000060    `..     DCD    536871008
    $t
    i.prvProcessReceivedCommands
    prvProcessReceivedCommands
        0x08001f68:    b530        0.      PUSH     {r4,r5,lr}
        0x08001f6a:    b087        ..      SUB      sp,sp,#0x1c
        0x08001f6c:    4d3c        <M      LDR      r5,[pc,#240] ; [0x8002060] = 0x20000060
        0x08001f6e:    e06e        n.      B        0x800204e ; prvProcessReceivedCommands + 230
        0x08001f70:    9803        ..      LDR      r0,[sp,#0xc]
        0x08001f72:    2800        .(      CMP      r0,#0
        0x08001f74:    da03        ..      BGE      0x8001f7e ; prvProcessReceivedCommands + 22
        0x08001f76:    e9dd2004    ...     LDRD     r2,r0,[sp,#0x10]
        0x08001f7a:    9906        ..      LDR      r1,[sp,#0x18]
        0x08001f7c:    4790        .G      BLX      r2
        0x08001f7e:    9803        ..      LDR      r0,[sp,#0xc]
        0x08001f80:    2800        .(      CMP      r0,#0
        0x08001f82:    db64        d.      BLT      0x800204e ; prvProcessReceivedCommands + 230
        0x08001f84:    9c05        ..      LDR      r4,[sp,#0x14]
        0x08001f86:    6960        `i      LDR      r0,[r4,#0x14]
        0x08001f88:    b110        ..      CBZ      r0,0x8001f90 ; prvProcessReceivedCommands + 40
        0x08001f8a:    1d20         .      ADDS     r0,r4,#4
        0x08001f8c:    f000f9d6    ....    BL       uxListRemove ; 0x800233c
        0x08001f90:    a802        ..      ADD      r0,sp,#8
        0x08001f92:    f000f8af    ....    BL       prvSampleTimeNow ; 0x80020f4
        0x08001f96:    4602        .F      MOV      r2,r0
        0x08001f98:    9803        ..      LDR      r0,[sp,#0xc]
        0x08001f9a:    280a        .(      CMP      r0,#0xa
        0x08001f9c:    d257        W.      BCS      0x800204e ; prvProcessReceivedCommands + 230
        0x08001f9e:    e8dff000    ....    TBB      [pc,r0]
    $d
        0x08001fa2:    0505        ..      DCW    1285
        0x08001fa4:    4a332d05    .-3J    DCD    1244867845
        0x08001fa8:    332d0505    ..-3    DCD    858588421
    $t
        0x08001fac:    f8940028    ..(.    LDRB     r0,[r4,#0x28]
        0x08001fb0:    f0400001    @...    ORR      r0,r0,#1
        0x08001fb4:    f8840028    ..(.    STRB     r0,[r4,#0x28]
        0x08001fb8:    9804        ..      LDR      r0,[sp,#0x10]
        0x08001fba:    69a1        .i      LDR      r1,[r4,#0x18]
        0x08001fbc:    4603        .F      MOV      r3,r0
        0x08001fbe:    4401        .D      ADD      r1,r1,r0
        0x08001fc0:    4620         F      MOV      r0,r4
        0x08001fc2:    f7ffff61    ..a.    BL       prvInsertTimerInActiveList ; 0x8001e88
        0x08001fc6:    b368        h.      CBZ      r0,0x8002024 ; prvProcessReceivedCommands + 188
        0x08001fc8:    6a21        !j      LDR      r1,[r4,#0x20]
        0x08001fca:    4620         F      MOV      r0,r4
        0x08001fcc:    4788        .G      BLX      r1
        0x08001fce:    f8940028    ..(.    LDRB     r0,[r4,#0x28]
        0x08001fd2:    0740        @.      LSLS     r0,r0,#29
        0x08001fd4:    d53b        ;.      BPL      0x800204e ; prvProcessReceivedCommands + 230
        0x08001fd6:    2000        .       MOVS     r0,#0
        0x08001fd8:    9000        ..      STR      r0,[sp,#0]
        0x08001fda:    9804        ..      LDR      r0,[sp,#0x10]
        0x08001fdc:    69a1        .i      LDR      r1,[r4,#0x18]
        0x08001fde:    2300        .#      MOVS     r3,#0
        0x08001fe0:    1842        B.      ADDS     r2,r0,r1
        0x08001fe2:    4619        .F      MOV      r1,r3
        0x08001fe4:    4620         F      MOV      r0,r4
        0x08001fe6:    f001f8b7    ....    BL       xTimerGenericCommand ; 0x8003158
        0x08001fea:    b9d8        ..      CBNZ     r0,0x8002024 ; prvProcessReceivedCommands + 188
        0x08001fec:    2050        P       MOVS     r0,#0x50
        0x08001fee:    f3808811    ....    MSR      BASEPRI,r0
        0x08001ff2:    f3bf8f4f    ..O.    DSB      
        0x08001ff6:    f3bf8f6f    ..o.    ISB      
        0x08001ffa:    e7fe        ..      B        0x8001ffa ; prvProcessReceivedCommands + 146
        0x08001ffc:    f8140f28    ..(.    LDRB     r0,[r4,#0x28]!
        0x08002000:    f0200001     ...    BIC      r0,r0,#1
        0x08002004:    7020         p      STRB     r0,[r4,#0]
        0x08002006:    e022        ".      B        0x800204e ; prvProcessReceivedCommands + 230
        0x08002008:    f8940028    ..(.    LDRB     r0,[r4,#0x28]
        0x0800200c:    f0400001    @...    ORR      r0,r0,#1
        0x08002010:    f8840028    ..(.    STRB     r0,[r4,#0x28]
        0x08002014:    9804        ..      LDR      r0,[sp,#0x10]
        0x08002016:    61a0        .a      STR      r0,[r4,#0x18]
        0x08002018:    b128        (.      CBZ      r0,0x8002026 ; prvProcessReceivedCommands + 190
        0x0800201a:    1881        ..      ADDS     r1,r0,r2
        0x0800201c:    4613        .F      MOV      r3,r2
        0x0800201e:    4620         F      MOV      r0,r4
        0x08002020:    f7ffff32    ..2.    BL       prvInsertTimerInActiveList ; 0x8001e88
        0x08002024:    e013        ..      B        0x800204e ; prvProcessReceivedCommands + 230
        0x08002026:    2050        P       MOVS     r0,#0x50
        0x08002028:    f3808811    ....    MSR      BASEPRI,r0
        0x0800202c:    f3bf8f4f    ..O.    DSB      
        0x08002030:    f3bf8f6f    ..o.    ISB      
        0x08002034:    e7fe        ..      B        0x8002034 ; prvProcessReceivedCommands + 204
        0x08002036:    f8940028    ..(.    LDRB     r0,[r4,#0x28]
        0x0800203a:    0781        ..      LSLS     r1,r0,#30
        0x0800203c:    d403        ..      BMI      0x8002046 ; prvProcessReceivedCommands + 222
        0x0800203e:    4620         F      MOV      r0,r4
        0x08002040:    f000fa0e    ....    BL       vPortFree ; 0x8002460
        0x08002044:    e003        ..      B        0x800204e ; prvProcessReceivedCommands + 230
        0x08002046:    f0200001     ...    BIC      r0,r0,#1
        0x0800204a:    f8840028    ..(.    STRB     r0,[r4,#0x28]
        0x0800204e:    2200        ."      MOVS     r2,#0
        0x08002050:    a903        ..      ADD      r1,sp,#0xc
        0x08002052:    6828        (h      LDR      r0,[r5,#0]
        0x08002054:    f000fdb8    ....    BL       xQueueReceive ; 0x8002bc8
        0x08002058:    2800        .(      CMP      r0,#0
        0x0800205a:    d189        ..      BNE      0x8001f70 ; prvProcessReceivedCommands + 8
        0x0800205c:    b007        ..      ADD      sp,sp,#0x1c
        0x0800205e:    bd30        0.      POP      {r4,r5,pc}
    $d
        0x08002060:    20000060    `..     DCD    536871008
    $t
    i.prvProcessTimerOrBlockTask
    prvProcessTimerOrBlockTask
        0x08002064:    b5f8        ..      PUSH     {r3-r7,lr}
        0x08002066:    4606        .F      MOV      r6,r0
        0x08002068:    460d        .F      MOV      r5,r1
        0x0800206a:    f000fb53    ..S.    BL       vTaskSuspendAll ; 0x8002714
        0x0800206e:    4668        hF      MOV      r0,sp
        0x08002070:    f000f840    ..@.    BL       prvSampleTimeNow ; 0x80020f4
        0x08002074:    4604        .F      MOV      r4,r0
        0x08002076:    9800        ..      LDR      r0,[sp,#0]
        0x08002078:    b110        ..      CBZ      r0,0x8002080 ; prvProcessTimerOrBlockTask + 28
        0x0800207a:    f000ffd5    ....    BL       xTaskResumeAll ; 0x8003028
        0x0800207e:    bdf8        ..      POP      {r3-r7,pc}
        0x08002080:    b945        E.      CBNZ     r5,0x8002094 ; prvProcessTimerOrBlockTask + 48
        0x08002082:    42a6        .B      CMP      r6,r4
        0x08002084:    d806        ..      BHI      0x8002094 ; prvProcessTimerOrBlockTask + 48
        0x08002086:    f000ffcf    ....    BL       xTaskResumeAll ; 0x8003028
        0x0800208a:    4621        !F      MOV      r1,r4
        0x0800208c:    4630        0F      MOV      r0,r6
        0x0800208e:    f7ffff37    ..7.    BL       prvProcessExpiredTimer ; 0x8001f00
        0x08002092:    bdf8        ..      POP      {r3-r7,pc}
        0x08002094:    480c        .H      LDR      r0,[pc,#48] ; [0x80020c8] = 0x20000060
        0x08002096:    b11d        ..      CBZ      r5,0x80020a0 ; prvProcessTimerOrBlockTask + 60
        0x08002098:    6901        .i      LDR      r1,[r0,#0x10]
        0x0800209a:    6809        .h      LDR      r1,[r1,#0]
        0x0800209c:    b191        ..      CBZ      r1,0x80020c4 ; prvProcessTimerOrBlockTask + 96
        0x0800209e:    2500        .%      MOVS     r5,#0
        0x080020a0:    1b31        1.      SUBS     r1,r6,r4
        0x080020a2:    462a        *F      MOV      r2,r5
        0x080020a4:    6800        .h      LDR      r0,[r0,#0]
        0x080020a6:    f000fa5b    ..[.    BL       vQueueWaitForMessageRestricted ; 0x8002560
        0x080020aa:    f000ffbd    ....    BL       xTaskResumeAll ; 0x8003028
        0x080020ae:    2800        .(      CMP      r0,#0
        0x080020b0:    d1ef        ..      BNE      0x8002092 ; prvProcessTimerOrBlockTask + 46
        0x080020b2:    4906        .I      LDR      r1,[pc,#24] ; [0x80020cc] = 0xe000ed04
        0x080020b4:    f04f5080    O..P    MOV      r0,#0x10000000
        0x080020b8:    6008        .`      STR      r0,[r1,#0]
        0x080020ba:    f3bf8f4f    ..O.    DSB      
        0x080020be:    f3bf8f6f    ..o.    ISB      
        0x080020c2:    bdf8        ..      POP      {r3-r7,pc}
        0x080020c4:    2501        .%      MOVS     r5,#1
        0x080020c6:    e7eb        ..      B        0x80020a0 ; prvProcessTimerOrBlockTask + 60
    $d
        0x080020c8:    20000060    `..     DCD    536871008
        0x080020cc:    e000ed04    ....    DCD    3758157060
    $t
    i.prvResetNextTaskUnblockTime
    prvResetNextTaskUnblockTime
        0x080020d0:    4807        .H      LDR      r0,[pc,#28] ; [0x80020f0] = 0x20000024
        0x080020d2:    6b41        Ak      LDR      r1,[r0,#0x34]
        0x080020d4:    6809        .h      LDR      r1,[r1,#0]
        0x080020d6:    2900        .)      CMP      r1,#0
        0x080020d8:    d005        ..      BEQ      0x80020e6 ; prvResetNextTaskUnblockTime + 22
        0x080020da:    6b41        Ak      LDR      r1,[r0,#0x34]
        0x080020dc:    68c9        .h      LDR      r1,[r1,#0xc]
        0x080020de:    68c9        .h      LDR      r1,[r1,#0xc]
        0x080020e0:    6849        Ih      LDR      r1,[r1,#4]
        0x080020e2:    6281        .b      STR      r1,[r0,#0x28]
        0x080020e4:    4770        pG      BX       lr
        0x080020e6:    f04f31ff    O..1    MOV      r1,#0xffffffff
        0x080020ea:    6281        .b      STR      r1,[r0,#0x28]
        0x080020ec:    4770        pG      BX       lr
    $d
        0x080020ee:    0000        ..      DCW    0
        0x080020f0:    20000024    $..     DCD    536870948
    $t
    i.prvSampleTimeNow
    prvSampleTimeNow
        0x080020f4:    b570        p.      PUSH     {r4-r6,lr}
        0x080020f6:    4605        .F      MOV      r5,r0
        0x080020f8:    f000feb0    ....    BL       xTaskGetTickCount ; 0x8002e5c
        0x080020fc:    4604        .F      MOV      r4,r0
        0x080020fe:    4e07        .N      LDR      r6,[pc,#28] ; [0x800211c] = 0x20000060
        0x08002100:    68b0        .h      LDR      r0,[r6,#8]
        0x08002102:    4284        .B      CMP      r4,r0
        0x08002104:    d204        ..      BCS      0x8002110 ; prvSampleTimeNow + 28
        0x08002106:    f000f80b    ....    BL       prvSwitchTimerLists ; 0x8002120
        0x0800210a:    2001        .       MOVS     r0,#1
        0x0800210c:    6028        (`      STR      r0,[r5,#0]
        0x0800210e:    e001        ..      B        0x8002114 ; prvSampleTimeNow + 32
        0x08002110:    2000        .       MOVS     r0,#0
        0x08002112:    6028        (`      STR      r0,[r5,#0]
        0x08002114:    60b4        .`      STR      r4,[r6,#8]
        0x08002116:    4620         F      MOV      r0,r4
        0x08002118:    bd70        p.      POP      {r4-r6,pc}
    $d
        0x0800211a:    0000        ..      DCW    0
        0x0800211c:    20000060    `..     DCD    536871008
    $t
    i.prvSwitchTimerLists
    prvSwitchTimerLists
        0x08002120:    b5f8        ..      PUSH     {r3-r7,lr}
        0x08002122:    4e1a        .N      LDR      r6,[pc,#104] ; [0x800218c] = 0x20000060
        0x08002124:    e020         .      B        0x8002168 ; prvSwitchTimerLists + 72
        0x08002126:    68c0        .h      LDR      r0,[r0,#0xc]
        0x08002128:    6805        .h      LDR      r5,[r0,#0]
        0x0800212a:    68c4        .h      LDR      r4,[r0,#0xc]
        0x0800212c:    1d20         .      ADDS     r0,r4,#4
        0x0800212e:    f000f905    ....    BL       uxListRemove ; 0x800233c
        0x08002132:    6a21        !j      LDR      r1,[r4,#0x20]
        0x08002134:    4620         F      MOV      r0,r4
        0x08002136:    4788        .G      BLX      r1
        0x08002138:    f8940028    ..(.    LDRB     r0,[r4,#0x28]
        0x0800213c:    0740        @.      LSLS     r0,r0,#29
        0x0800213e:    d513        ..      BPL      0x8002168 ; prvSwitchTimerLists + 72
        0x08002140:    69a0        .i      LDR      r0,[r4,#0x18]
        0x08002142:    4428        (D      ADD      r0,r0,r5
        0x08002144:    42a8        .B      CMP      r0,r5
        0x08002146:    d906        ..      BLS      0x8002156 ; prvSwitchTimerLists + 54
        0x08002148:    6060        ``      STR      r0,[r4,#4]
        0x0800214a:    6124        $a      STR      r4,[r4,#0x10]
        0x0800214c:    1d21        !.      ADDS     r1,r4,#4
        0x0800214e:    68f0        .h      LDR      r0,[r6,#0xc]
        0x08002150:    f000f92c    ..,.    BL       vListInsert ; 0x80023ac
        0x08002154:    e008        ..      B        0x8002168 ; prvSwitchTimerLists + 72
        0x08002156:    2000        .       MOVS     r0,#0
        0x08002158:    4603        .F      MOV      r3,r0
        0x0800215a:    4601        .F      MOV      r1,r0
        0x0800215c:    9000        ..      STR      r0,[sp,#0]
        0x0800215e:    462a        *F      MOV      r2,r5
        0x08002160:    4620         F      MOV      r0,r4
        0x08002162:    f000fff9    ....    BL       xTimerGenericCommand ; 0x8003158
        0x08002166:    b140        @.      CBZ      r0,0x800217a ; prvSwitchTimerLists + 90
        0x08002168:    68f0        .h      LDR      r0,[r6,#0xc]
        0x0800216a:    6801        .h      LDR      r1,[r0,#0]
        0x0800216c:    2900        .)      CMP      r1,#0
        0x0800216e:    d1da        ..      BNE      0x8002126 ; prvSwitchTimerLists + 6
        0x08002170:    68f0        .h      LDR      r0,[r6,#0xc]
        0x08002172:    6931        1i      LDR      r1,[r6,#0x10]
        0x08002174:    60f1        .`      STR      r1,[r6,#0xc]
        0x08002176:    6130        0a      STR      r0,[r6,#0x10]
        0x08002178:    bdf8        ..      POP      {r3-r7,pc}
        0x0800217a:    2050        P       MOVS     r0,#0x50
        0x0800217c:    f3808811    ....    MSR      BASEPRI,r0
        0x08002180:    f3bf8f4f    ..O.    DSB      
        0x08002184:    f3bf8f6f    ..o.    ISB      
        0x08002188:    e7fe        ..      B        0x8002188 ; prvSwitchTimerLists + 104
    $d
        0x0800218a:    0000        ..      DCW    0
        0x0800218c:    20000060    `..     DCD    536871008
    $t
    i.prvTaskExitError
    prvTaskExitError
        0x08002190:    4809        .H      LDR      r0,[pc,#36] ; [0x80021b8] = 0x20000098
        0x08002192:    6840        @h      LDR      r0,[r0,#4]
        0x08002194:    1c40        @.      ADDS     r0,r0,#1
        0x08002196:    d007        ..      BEQ      0x80021a8 ; prvTaskExitError + 24
        0x08002198:    2050        P       MOVS     r0,#0x50
        0x0800219a:    f3808811    ....    MSR      BASEPRI,r0
        0x0800219e:    f3bf8f4f    ..O.    DSB      
        0x080021a2:    f3bf8f6f    ..o.    ISB      
        0x080021a6:    e7fe        ..      B        0x80021a6 ; prvTaskExitError + 22
        0x080021a8:    2050        P       MOVS     r0,#0x50
        0x080021aa:    f3808811    ....    MSR      BASEPRI,r0
        0x080021ae:    f3bf8f4f    ..O.    DSB      
        0x080021b2:    f3bf8f6f    ..o.    ISB      
        0x080021b6:    e7fe        ..      B        0x80021b6 ; prvTaskExitError + 38
    $d
        0x080021b8:    20000098    ...     DCD    536871064
    $t
    i.prvTimerTask
    prvTimerTask
        0x080021bc:    b508        ..      PUSH     {r3,lr}
        0x080021be:    4668        hF      MOV      r0,sp
        0x080021c0:    f7fffd5a    ..Z.    BL       prvGetNextExpireTime ; 0x8001c78
        0x080021c4:    9900        ..      LDR      r1,[sp,#0]
        0x080021c6:    f7ffff4d    ..M.    BL       prvProcessTimerOrBlockTask ; 0x8002064
        0x080021ca:    f7fffecd    ....    BL       prvProcessReceivedCommands ; 0x8001f68
        0x080021ce:    e7f6        ..      B        0x80021be ; prvTimerTask + 2
    i.prvUnlockQueue
    prvUnlockQueue
        0x080021d0:    e92d41f0    -..A    PUSH     {r4-r8,lr}
        0x080021d4:    4604        .F      MOV      r4,r0
        0x080021d6:    f000f90d    ....    BL       vPortEnterCritical ; 0x80023f4
        0x080021da:    f9945045    ..EP    LDRSB    r5,[r4,#0x45]
        0x080021de:    f1040624    ..$.    ADD      r6,r4,#0x24
        0x080021e2:    e009        ..      B        0x80021f8 ; prvUnlockQueue + 40
        0x080021e4:    6a60        `j      LDR      r0,[r4,#0x24]
        0x080021e6:    b148        H.      CBZ      r0,0x80021fc ; prvUnlockQueue + 44
        0x080021e8:    4630        0F      MOV      r0,r6
        0x080021ea:    f000fee1    ....    BL       xTaskRemoveFromEventList ; 0x8002fb0
        0x080021ee:    b108        ..      CBZ      r0,0x80021f4 ; prvUnlockQueue + 36
        0x080021f0:    f000fa0a    ....    BL       vTaskMissedYield ; 0x8002608
        0x080021f4:    1e6d        m.      SUBS     r5,r5,#1
        0x080021f6:    b26d        m.      SXTB     r5,r5
        0x080021f8:    2d00        .-      CMP      r5,#0
        0x080021fa:    dcf3        ..      BGT      0x80021e4 ; prvUnlockQueue + 20
        0x080021fc:    f04f36ff    O..6    MOV      r6,#0xffffffff
        0x08002200:    f8846045    ..E`    STRB     r6,[r4,#0x45]
        0x08002204:    f000f916    ....    BL       vPortExitCritical ; 0x8002434
        0x08002208:    f000f8f4    ....    BL       vPortEnterCritical ; 0x80023f4
        0x0800220c:    f9945044    ..DP    LDRSB    r5,[r4,#0x44]
        0x08002210:    f1040710    ....    ADD      r7,r4,#0x10
        0x08002214:    e009        ..      B        0x800222a ; prvUnlockQueue + 90
        0x08002216:    6920         i      LDR      r0,[r4,#0x10]
        0x08002218:    b148        H.      CBZ      r0,0x800222e ; prvUnlockQueue + 94
        0x0800221a:    4638        8F      MOV      r0,r7
        0x0800221c:    f000fec8    ....    BL       xTaskRemoveFromEventList ; 0x8002fb0
        0x08002220:    b108        ..      CBZ      r0,0x8002226 ; prvUnlockQueue + 86
        0x08002222:    f000f9f1    ....    BL       vTaskMissedYield ; 0x8002608
        0x08002226:    1e6d        m.      SUBS     r5,r5,#1
        0x08002228:    b26d        m.      SXTB     r5,r5
        0x0800222a:    2d00        .-      CMP      r5,#0
        0x0800222c:    dcf3        ..      BGT      0x8002216 ; prvUnlockQueue + 70
        0x0800222e:    f8846044    ..D`    STRB     r6,[r4,#0x44]
        0x08002232:    e8bd41f0    ...A    POP      {r4-r8,lr}
        0x08002236:    f000b8fd    ....    B.W      vPortExitCritical ; 0x8002434
        0x0800223a:    0000        ..      MOVS     r0,r0
    i.pvPortMalloc
    pvPortMalloc
        0x0800223c:    e92d41f0    -..A    PUSH     {r4-r8,lr}
        0x08002240:    4605        .F      MOV      r5,r0
        0x08002242:    2600        .&      MOVS     r6,#0
        0x08002244:    f000fa66    ..f.    BL       vTaskSuspendAll ; 0x8002714
        0x08002248:    4f32        2O      LDR      r7,[pc,#200] ; [0x8002314] = 0x20000078
        0x0800224a:    6838        8h      LDR      r0,[r7,#0]
        0x0800224c:    b908        ..      CBNZ     r0,0x8002252 ; pvPortMalloc + 22
        0x0800224e:    f7fffd25    ..%.    BL       prvHeapInit ; 0x8001c9c
        0x08002252:    6978        xi      LDR      r0,[r7,#0x14]
        0x08002254:    4205        .B      TST      r5,r0
        0x08002256:    d14d        M.      BNE      0x80022f4 ; pvPortMalloc + 184
        0x08002258:    b18d        ..      CBZ      r5,0x800227e ; pvPortMalloc + 66
        0x0800225a:    3508        .5      ADDS     r5,r5,#8
        0x0800225c:    0768        h.      LSLS     r0,r5,#29
        0x0800225e:    d00e        ..      BEQ      0x800227e ; pvPortMalloc + 66
        0x08002260:    f0050007    ....    AND      r0,r5,#7
        0x08002264:    f1c00008    ....    RSB      r0,r0,#8
        0x08002268:    4405        .D      ADD      r5,r5,r0
        0x0800226a:    0768        h.      LSLS     r0,r5,#29
        0x0800226c:    d007        ..      BEQ      0x800227e ; pvPortMalloc + 66
        0x0800226e:    2050        P       MOVS     r0,#0x50
        0x08002270:    f3808811    ....    MSR      BASEPRI,r0
        0x08002274:    f3bf8f4f    ..O.    DSB      
        0x08002278:    f3bf8f6f    ..o.    ISB      
        0x0800227c:    e7fe        ..      B        0x800227c ; pvPortMalloc + 64
        0x0800227e:    b3cd        ..      CBZ      r5,0x80022f4 ; pvPortMalloc + 184
        0x08002280:    6878        xh      LDR      r0,[r7,#4]
        0x08002282:    4285        .B      CMP      r5,r0
        0x08002284:    d836        6.      BHI      0x80022f4 ; pvPortMalloc + 184
        0x08002286:    4923        #I      LDR      r1,[pc,#140] ; [0x8002314] = 0x20000078
        0x08002288:    3118        .1      ADDS     r1,r1,#0x18
        0x0800228a:    4608        .F      MOV      r0,r1
        0x0800228c:    6804        .h      LDR      r4,[r0,#0]
        0x0800228e:    e001        ..      B        0x8002294 ; pvPortMalloc + 88
        0x08002290:    4621        !F      MOV      r1,r4
        0x08002292:    4604        .F      MOV      r4,r0
        0x08002294:    6860        `h      LDR      r0,[r4,#4]
        0x08002296:    42a8        .B      CMP      r0,r5
        0x08002298:    d202        ..      BCS      0x80022a0 ; pvPortMalloc + 100
        0x0800229a:    6820         h      LDR      r0,[r4,#0]
        0x0800229c:    2800        .(      CMP      r0,#0
        0x0800229e:    d1f7        ..      BNE      0x8002290 ; pvPortMalloc + 84
        0x080022a0:    6838        8h      LDR      r0,[r7,#0]
        0x080022a2:    4284        .B      CMP      r4,r0
        0x080022a4:    d026        &.      BEQ      0x80022f4 ; pvPortMalloc + 184
        0x080022a6:    680e        .h      LDR      r6,[r1,#0]
        0x080022a8:    3608        .6      ADDS     r6,r6,#8
        0x080022aa:    6820         h      LDR      r0,[r4,#0]
        0x080022ac:    6008        .`      STR      r0,[r1,#0]
        0x080022ae:    6860        `h      LDR      r0,[r4,#4]
        0x080022b0:    1b41        A.      SUBS     r1,r0,r5
        0x080022b2:    2910        .)      CMP      r1,#0x10
        0x080022b4:    d90e        ..      BLS      0x80022d4 ; pvPortMalloc + 152
        0x080022b6:    1960        `.      ADDS     r0,r4,r5
        0x080022b8:    0742        B.      LSLS     r2,r0,#29
        0x080022ba:    d007        ..      BEQ      0x80022cc ; pvPortMalloc + 144
        0x080022bc:    2050        P       MOVS     r0,#0x50
        0x080022be:    f3808811    ....    MSR      BASEPRI,r0
        0x080022c2:    f3bf8f4f    ..O.    DSB      
        0x080022c6:    f3bf8f6f    ..o.    ISB      
        0x080022ca:    e7fe        ..      B        0x80022ca ; pvPortMalloc + 142
        0x080022cc:    6041        A`      STR      r1,[r0,#4]
        0x080022ce:    6065        e`      STR      r5,[r4,#4]
        0x080022d0:    f7fffdb0    ....    BL       prvInsertBlockIntoFreeList ; 0x8001e34
        0x080022d4:    6861        ah      LDR      r1,[r4,#4]
        0x080022d6:    6878        xh      LDR      r0,[r7,#4]
        0x080022d8:    1a40        @.      SUBS     r0,r0,r1
        0x080022da:    6078        x`      STR      r0,[r7,#4]
        0x080022dc:    68ba        .h      LDR      r2,[r7,#8]
        0x080022de:    4290        .B      CMP      r0,r2
        0x080022e0:    d200        ..      BCS      0x80022e4 ; pvPortMalloc + 168
        0x080022e2:    60b8        .`      STR      r0,[r7,#8]
        0x080022e4:    6978        xi      LDR      r0,[r7,#0x14]
        0x080022e6:    4301        .C      ORRS     r1,r1,r0
        0x080022e8:    6061        a`      STR      r1,[r4,#4]
        0x080022ea:    2000        .       MOVS     r0,#0
        0x080022ec:    6020         `      STR      r0,[r4,#0]
        0x080022ee:    68f8        .h      LDR      r0,[r7,#0xc]
        0x080022f0:    1c40        @.      ADDS     r0,r0,#1
        0x080022f2:    60f8        .`      STR      r0,[r7,#0xc]
        0x080022f4:    f000fe98    ....    BL       xTaskResumeAll ; 0x8003028
        0x080022f8:    0770        p.      LSLS     r0,r6,#29
        0x080022fa:    d007        ..      BEQ      0x800230c ; pvPortMalloc + 208
        0x080022fc:    2050        P       MOVS     r0,#0x50
        0x080022fe:    f3808811    ....    MSR      BASEPRI,r0
        0x08002302:    f3bf8f4f    ..O.    DSB      
        0x08002306:    f3bf8f6f    ..o.    ISB      
        0x0800230a:    e7fe        ..      B        0x800230a ; pvPortMalloc + 206
        0x0800230c:    4630        0F      MOV      r0,r6
        0x0800230e:    e8bd81f0    ....    POP      {r4-r8,pc}
    $d
        0x08002312:    0000        ..      DCW    0
        0x08002314:    20000078    x..     DCD    536871032
    $t
    i.pxPortInitialiseStack
    pxPortInitialiseStack
        0x08002318:    3824        $8      SUBS     r0,r0,#0x24
        0x0800231a:    f04f7380    O..s    MOV      r3,#0x1000000
        0x0800231e:    6203        .b      STR      r3,[r0,#0x20]
        0x08002320:    f0210101    !...    BIC      r1,r1,#1
        0x08002324:    61c1        .a      STR      r1,[r0,#0x1c]
        0x08002326:    4904        .I      LDR      r1,[pc,#16] ; [0x8002338] = 0x8002191
        0x08002328:    6181        .a      STR      r1,[r0,#0x18]
        0x0800232a:    6042        B`      STR      r2,[r0,#4]
        0x0800232c:    f06f0102    o...    MVN      r1,#2
        0x08002330:    f8401920    @. .    STR      r1,[r0],#-0x20
        0x08002334:    4770        pG      BX       lr
    $d
        0x08002336:    0000        ..      DCW    0
        0x08002338:    08002191    .!..    DCD    134226321
    $t
    i.uxListRemove
    uxListRemove
        0x0800233c:    6901        .i      LDR      r1,[r0,#0x10]
        0x0800233e:    e9d03201    ...2    LDRD     r3,r2,[r0,#4]
        0x08002342:    609a        .`      STR      r2,[r3,#8]
        0x08002344:    e9d02301    ...#    LDRD     r2,r3,[r0,#4]
        0x08002348:    605a        Z`      STR      r2,[r3,#4]
        0x0800234a:    684a        Jh      LDR      r2,[r1,#4]
        0x0800234c:    4282        .B      CMP      r2,r0
        0x0800234e:    d101        ..      BNE      0x8002354 ; uxListRemove + 24
        0x08002350:    6882        .h      LDR      r2,[r0,#8]
        0x08002352:    604a        J`      STR      r2,[r1,#4]
        0x08002354:    2200        ."      MOVS     r2,#0
        0x08002356:    6102        .a      STR      r2,[r0,#0x10]
        0x08002358:    6808        .h      LDR      r0,[r1,#0]
        0x0800235a:    1e40        @.      SUBS     r0,r0,#1
        0x0800235c:    6008        .`      STR      r0,[r1,#0]
        0x0800235e:    6808        .h      LDR      r0,[r1,#0]
        0x08002360:    4770        pG      BX       lr
        0x08002362:    0000        ..      MOVS     r0,r0
    i.vApplicationGetIdleTaskMemory
    vApplicationGetIdleTaskMemory
        0x08002364:    4b03        .K      LDR      r3,[pc,#12] ; [0x8002374] = 0x20000778
        0x08002366:    6003        .`      STR      r3,[r0,#0]
        0x08002368:    f103005c    ..\.    ADD      r0,r3,#0x5c
        0x0800236c:    6008        .`      STR      r0,[r1,#0]
        0x0800236e:    2080        .       MOVS     r0,#0x80
        0x08002370:    6010        .`      STR      r0,[r2,#0]
        0x08002372:    4770        pG      BX       lr
    $d
        0x08002374:    20000778    x..     DCD    536872824
    $t
    i.vApplicationGetTimerTaskMemory
    vApplicationGetTimerTaskMemory
        0x08002378:    4b04        .K      LDR      r3,[pc,#16] ; [0x800238c] = 0x200009d4
        0x0800237a:    6003        .`      STR      r3,[r0,#0]
        0x0800237c:    f103005c    ..\.    ADD      r0,r3,#0x5c
        0x08002380:    6008        .`      STR      r0,[r1,#0]
        0x08002382:    f44f7080    O..p    MOV      r0,#0x100
        0x08002386:    6010        .`      STR      r0,[r2,#0]
        0x08002388:    4770        pG      BX       lr
    $d
        0x0800238a:    0000        ..      DCW    0
        0x0800238c:    200009d4    ...     DCD    536873428
    $t
    i.vListInitialise
    vListInitialise
        0x08002390:    f1000108    ....    ADD      r1,r0,#8
        0x08002394:    6041        A`      STR      r1,[r0,#4]
        0x08002396:    f04f32ff    O..2    MOV      r2,#0xffffffff
        0x0800239a:    6082        .`      STR      r2,[r0,#8]
        0x0800239c:    60c1        .`      STR      r1,[r0,#0xc]
        0x0800239e:    6101        .a      STR      r1,[r0,#0x10]
        0x080023a0:    2100        .!      MOVS     r1,#0
        0x080023a2:    6001        .`      STR      r1,[r0,#0]
        0x080023a4:    4770        pG      BX       lr
    i.vListInitialiseItem
    vListInitialiseItem
        0x080023a6:    2100        .!      MOVS     r1,#0
        0x080023a8:    6101        .a      STR      r1,[r0,#0x10]
        0x080023aa:    4770        pG      BX       lr
    i.vListInsert
    vListInsert
        0x080023ac:    b530        0.      PUSH     {r4,r5,lr}
        0x080023ae:    680c        .h      LDR      r4,[r1,#0]
        0x080023b0:    1c62        b.      ADDS     r2,r4,#1
        0x080023b2:    d002        ..      BEQ      0x80023ba ; vListInsert + 14
        0x080023b4:    f1000208    ....    ADD      r2,r0,#8
        0x080023b8:    e002        ..      B        0x80023c0 ; vListInsert + 20
        0x080023ba:    6902        .i      LDR      r2,[r0,#0x10]
        0x080023bc:    e004        ..      B        0x80023c8 ; vListInsert + 28
        0x080023be:    461a        .F      MOV      r2,r3
        0x080023c0:    6853        Sh      LDR      r3,[r2,#4]
        0x080023c2:    681d        .h      LDR      r5,[r3,#0]
        0x080023c4:    42a5        .B      CMP      r5,r4
        0x080023c6:    d9fa        ..      BLS      0x80023be ; vListInsert + 18
        0x080023c8:    6853        Sh      LDR      r3,[r2,#4]
        0x080023ca:    604b        K`      STR      r3,[r1,#4]
        0x080023cc:    6099        .`      STR      r1,[r3,#8]
        0x080023ce:    608a        .`      STR      r2,[r1,#8]
        0x080023d0:    6051        Q`      STR      r1,[r2,#4]
        0x080023d2:    6108        .a      STR      r0,[r1,#0x10]
        0x080023d4:    6801        .h      LDR      r1,[r0,#0]
        0x080023d6:    1c49        I.      ADDS     r1,r1,#1
        0x080023d8:    6001        .`      STR      r1,[r0,#0]
        0x080023da:    bd30        0.      POP      {r4,r5,pc}
    i.vListInsertEnd
    vListInsertEnd
        0x080023dc:    6842        Bh      LDR      r2,[r0,#4]
        0x080023de:    604a        J`      STR      r2,[r1,#4]
        0x080023e0:    6893        .h      LDR      r3,[r2,#8]
        0x080023e2:    608b        .`      STR      r3,[r1,#8]
        0x080023e4:    6893        .h      LDR      r3,[r2,#8]
        0x080023e6:    6059        Y`      STR      r1,[r3,#4]
        0x080023e8:    6091        .`      STR      r1,[r2,#8]
        0x080023ea:    6108        .a      STR      r0,[r1,#0x10]
        0x080023ec:    6801        .h      LDR      r1,[r0,#0]
        0x080023ee:    1c49        I.      ADDS     r1,r1,#1
        0x080023f0:    6001        .`      STR      r1,[r0,#0]
        0x080023f2:    4770        pG      BX       lr
    i.vPortEnterCritical
    vPortEnterCritical
        0x080023f4:    2050        P       MOVS     r0,#0x50
        0x080023f6:    f3808811    ....    MSR      BASEPRI,r0
        0x080023fa:    f3bf8f4f    ..O.    DSB      
        0x080023fe:    f3bf8f6f    ..o.    ISB      
        0x08002402:    490a        .I      LDR      r1,[pc,#40] ; [0x800242c] = 0x20000098
        0x08002404:    6848        Hh      LDR      r0,[r1,#4]
        0x08002406:    1c40        @.      ADDS     r0,r0,#1
        0x08002408:    6048        H`      STR      r0,[r1,#4]
        0x0800240a:    2801        .(      CMP      r0,#1
        0x0800240c:    d10c        ..      BNE      0x8002428 ; vPortEnterCritical + 52
        0x0800240e:    4808        .H      LDR      r0,[pc,#32] ; [0x8002430] = 0xe000ed04
        0x08002410:    6800        .h      LDR      r0,[r0,#0]
        0x08002412:    f0100fff    ....    TST      r0,#0xff
        0x08002416:    d007        ..      BEQ      0x8002428 ; vPortEnterCritical + 52
        0x08002418:    2050        P       MOVS     r0,#0x50
        0x0800241a:    f3808811    ....    MSR      BASEPRI,r0
        0x0800241e:    f3bf8f4f    ..O.    DSB      
        0x08002422:    f3bf8f6f    ..o.    ISB      
        0x08002426:    e7fe        ..      B        0x8002426 ; vPortEnterCritical + 50
        0x08002428:    4770        pG      BX       lr
    $d
        0x0800242a:    0000        ..      DCW    0
        0x0800242c:    20000098    ...     DCD    536871064
        0x08002430:    e000ed04    ....    DCD    3758157060
    $t
    i.vPortExitCritical
    vPortExitCritical
        0x08002434:    4909        .I      LDR      r1,[pc,#36] ; [0x800245c] = 0x20000098
        0x08002436:    6848        Hh      LDR      r0,[r1,#4]
        0x08002438:    2800        .(      CMP      r0,#0
        0x0800243a:    d006        ..      BEQ      0x800244a ; vPortExitCritical + 22
        0x0800243c:    1e40        @.      SUBS     r0,r0,#1
        0x0800243e:    6048        H`      STR      r0,[r1,#4]
        0x08002440:    2800        .(      CMP      r0,#0
        0x08002442:    d101        ..      BNE      0x8002448 ; vPortExitCritical + 20
        0x08002444:    f3808811    ....    MSR      BASEPRI,r0
        0x08002448:    4770        pG      BX       lr
        0x0800244a:    2050        P       MOVS     r0,#0x50
        0x0800244c:    f3808811    ....    MSR      BASEPRI,r0
        0x08002450:    f3bf8f4f    ..O.    DSB      
        0x08002454:    f3bf8f6f    ..o.    ISB      
        0x08002458:    e7fe        ..      B        0x8002458 ; vPortExitCritical + 36
    $d
        0x0800245a:    0000        ..      DCW    0
        0x0800245c:    20000098    ...     DCD    536871064
    $t
    i.vPortFree
    vPortFree
        0x08002460:    b570        p.      PUSH     {r4-r6,lr}
        0x08002462:    2800        .(      CMP      r0,#0
        0x08002464:    d02a        *.      BEQ      0x80024bc ; vPortFree + 92
        0x08002466:    3808        .8      SUBS     r0,r0,#8
        0x08002468:    4604        .F      MOV      r4,r0
        0x0800246a:    4d15        .M      LDR      r5,[pc,#84] ; [0x80024c0] = 0x20000078
        0x0800246c:    6860        `h      LDR      r0,[r4,#4]
        0x0800246e:    6969        ii      LDR      r1,[r5,#0x14]
        0x08002470:    4208        .B      TST      r0,r1
        0x08002472:    d107        ..      BNE      0x8002484 ; vPortFree + 36
        0x08002474:    2050        P       MOVS     r0,#0x50
        0x08002476:    f3808811    ....    MSR      BASEPRI,r0
        0x0800247a:    f3bf8f4f    ..O.    DSB      
        0x0800247e:    f3bf8f6f    ..o.    ISB      
        0x08002482:    e7fe        ..      B        0x8002482 ; vPortFree + 34
        0x08002484:    6822        "h      LDR      r2,[r4,#0]
        0x08002486:    b13a        :.      CBZ      r2,0x8002498 ; vPortFree + 56
        0x08002488:    2050        P       MOVS     r0,#0x50
        0x0800248a:    f3808811    ....    MSR      BASEPRI,r0
        0x0800248e:    f3bf8f4f    ..O.    DSB      
        0x08002492:    f3bf8f6f    ..o.    ISB      
        0x08002496:    e7fe        ..      B        0x8002496 ; vPortFree + 54
        0x08002498:    4388        .C      BICS     r0,r0,r1
        0x0800249a:    6060        ``      STR      r0,[r4,#4]
        0x0800249c:    f000f93a    ..:.    BL       vTaskSuspendAll ; 0x8002714
        0x080024a0:    6860        `h      LDR      r0,[r4,#4]
        0x080024a2:    6869        ih      LDR      r1,[r5,#4]
        0x080024a4:    4408        .D      ADD      r0,r0,r1
        0x080024a6:    6068        h`      STR      r0,[r5,#4]
        0x080024a8:    4620         F      MOV      r0,r4
        0x080024aa:    f7fffcc3    ....    BL       prvInsertBlockIntoFreeList ; 0x8001e34
        0x080024ae:    6928        (i      LDR      r0,[r5,#0x10]
        0x080024b0:    1c40        @.      ADDS     r0,r0,#1
        0x080024b2:    6128        (a      STR      r0,[r5,#0x10]
        0x080024b4:    e8bd4070    ..p@    POP      {r4-r6,lr}
        0x080024b8:    f000bdb6    ....    B.W      xTaskResumeAll ; 0x8003028
        0x080024bc:    bd70        p.      POP      {r4-r6,pc}
    $d
        0x080024be:    0000        ..      DCW    0
        0x080024c0:    20000078    x..     DCD    536871032
    $t
    i.vPortSetupTimerInterrupt
    vPortSetupTimerInterrupt
        0x080024c4:    f04f20e0    O..     MOV      r0,#0xe000e000
        0x080024c8:    2100        .!      MOVS     r1,#0
        0x080024ca:    6101        .a      STR      r1,[r0,#0x10]
        0x080024cc:    6181        .a      STR      r1,[r0,#0x18]
        0x080024ce:    4905        .I      LDR      r1,[pc,#20] ; [0x80024e4] = 0x20000020
        0x080024d0:    f44f727a    O.zr    MOV      r2,#0x3e8
        0x080024d4:    6809        .h      LDR      r1,[r1,#0]
        0x080024d6:    fbb1f1f2    ....    UDIV     r1,r1,r2
        0x080024da:    1e49        I.      SUBS     r1,r1,#1
        0x080024dc:    6141        Aa      STR      r1,[r0,#0x14]
        0x080024de:    2107        .!      MOVS     r1,#7
        0x080024e0:    6101        .a      STR      r1,[r0,#0x10]
        0x080024e2:    4770        pG      BX       lr
    $d
        0x080024e4:    20000020     ..     DCD    536870944
    $t
    i.vPortValidateInterruptPriority
    vPortValidateInterruptPriority
        0x080024e8:    b510        ..      PUSH     {r4,lr}
        0x080024ea:    f7fdfebd    ....    BL       vPortGetIPSR ; 0x8000268
        0x080024ee:    4911        .I      LDR      r1,[pc,#68] ; [0x8002534] = 0x20000098
        0x080024f0:    2810        .(      CMP      r0,#0x10
        0x080024f2:    d30e        ..      BCC      0x8002512 ; vPortValidateInterruptPriority + 42
        0x080024f4:    f10020e0    ...     ADD      r0,r0,#0xe000e000
        0x080024f8:    f89003f0    ....    LDRB     r0,[r0,#0x3f0]
        0x080024fc:    780a        .x      LDRB     r2,[r1,#0]
        0x080024fe:    4290        .B      CMP      r0,r2
        0x08002500:    d207        ..      BCS      0x8002512 ; vPortValidateInterruptPriority + 42
        0x08002502:    2050        P       MOVS     r0,#0x50
        0x08002504:    f3808811    ....    MSR      BASEPRI,r0
        0x08002508:    f3bf8f4f    ..O.    DSB      
        0x0800250c:    f3bf8f6f    ..o.    ISB      
        0x08002510:    e7fe        ..      B        0x8002510 ; vPortValidateInterruptPriority + 40
        0x08002512:    4809        .H      LDR      r0,[pc,#36] ; [0x8002538] = 0xe000ed0c
        0x08002514:    6800        .h      LDR      r0,[r0,#0]
        0x08002516:    6889        .h      LDR      r1,[r1,#8]
        0x08002518:    f40060e0    ...`    AND      r0,r0,#0x700
        0x0800251c:    4288        .B      CMP      r0,r1
        0x0800251e:    d907        ..      BLS      0x8002530 ; vPortValidateInterruptPriority + 72
        0x08002520:    2050        P       MOVS     r0,#0x50
        0x08002522:    f3808811    ....    MSR      BASEPRI,r0
        0x08002526:    f3bf8f4f    ..O.    DSB      
        0x0800252a:    f3bf8f6f    ..o.    ISB      
        0x0800252e:    e7fe        ..      B        0x800252e ; vPortValidateInterruptPriority + 70
        0x08002530:    bd10        ..      POP      {r4,pc}
    $d
        0x08002532:    0000        ..      DCW    0
        0x08002534:    20000098    ...     DCD    536871064
        0x08002538:    e000ed0c    ....    DCD    3758157068
    $t
    i.vQueueAddToRegistry
    vQueueAddToRegistry
        0x0800253c:    b510        ..      PUSH     {r4,lr}
        0x0800253e:    2200        ."      MOVS     r2,#0
        0x08002540:    4b06        .K      LDR      r3,[pc,#24] ; [0x800255c] = 0x2000015c
        0x08002542:    f8534032    S.2@    LDR      r4,[r3,r2,LSL #3]
        0x08002546:    b11c        ..      CBZ      r4,0x8002550 ; vQueueAddToRegistry + 20
        0x08002548:    1c52        R.      ADDS     r2,r2,#1
        0x0800254a:    2a08        .*      CMP      r2,#8
        0x0800254c:    d3f9        ..      BCC      0x8002542 ; vQueueAddToRegistry + 6
        0x0800254e:    bd10        ..      POP      {r4,pc}
        0x08002550:    f8431032    C.2.    STR      r1,[r3,r2,LSL #3]
        0x08002554:    eb0301c2    ....    ADD      r1,r3,r2,LSL #3
        0x08002558:    6048        H`      STR      r0,[r1,#4]
        0x0800255a:    bd10        ..      POP      {r4,pc}
    $d
        0x0800255c:    2000015c    \..     DCD    536871260
    $t
    i.vQueueWaitForMessageRestricted
    vQueueWaitForMessageRestricted
        0x08002560:    b570        p.      PUSH     {r4-r6,lr}
        0x08002562:    4604        .F      MOV      r4,r0
        0x08002564:    460d        .F      MOV      r5,r1
        0x08002566:    4616        .F      MOV      r6,r2
        0x08002568:    f7ffff44    ..D.    BL       vPortEnterCritical ; 0x80023f4
        0x0800256c:    f9943044    ..D0    LDRSB    r3,[r4,#0x44]
        0x08002570:    f04f0000    O...    MOV      r0,#0
        0x08002574:    1c5b        [.      ADDS     r3,r3,#1
        0x08002576:    d101        ..      BNE      0x800257c ; vQueueWaitForMessageRestricted + 28
        0x08002578:    f8840044    ..D.    STRB     r0,[r4,#0x44]
        0x0800257c:    f9941045    ..E.    LDRSB    r1,[r4,#0x45]
        0x08002580:    1c49        I.      ADDS     r1,r1,#1
        0x08002582:    d101        ..      BNE      0x8002588 ; vQueueWaitForMessageRestricted + 40
        0x08002584:    f8840045    ..E.    STRB     r0,[r4,#0x45]
        0x08002588:    f7ffff54    ..T.    BL       vPortExitCritical ; 0x8002434
        0x0800258c:    6ba0        .k      LDR      r0,[r4,#0x38]
        0x0800258e:    b928        (.      CBNZ     r0,0x800259c ; vQueueWaitForMessageRestricted + 60
        0x08002590:    4632        2F      MOV      r2,r6
        0x08002592:    4629        )F      MOV      r1,r5
        0x08002594:    f1040024    ..$.    ADD      r0,r4,#0x24
        0x08002598:    f000f856    ..V.    BL       vTaskPlaceOnEventListRestricted ; 0x8002648
        0x0800259c:    4620         F      MOV      r0,r4
        0x0800259e:    e8bd4070    ..p@    POP      {r4-r6,lr}
        0x080025a2:    f7ffbe15    ....    B.W      prvUnlockQueue ; 0x80021d0
        0x080025a6:    0000        ..      MOVS     r0,r0
    i.vTaskDelay
    vTaskDelay
        0x080025a8:    b510        ..      PUSH     {r4,lr}
        0x080025aa:    4602        .F      MOV      r2,r0
        0x080025ac:    2000        .       MOVS     r0,#0
        0x080025ae:    2a00        .*      CMP      r2,#0
        0x080025b0:    d012        ..      BEQ      0x80025d8 ; vTaskDelay + 48
        0x080025b2:    480f        .H      LDR      r0,[pc,#60] ; [0x80025f0] = 0x20000024
        0x080025b4:    6b00        .k      LDR      r0,[r0,#0x30]
        0x080025b6:    b138        8.      CBZ      r0,0x80025c8 ; vTaskDelay + 32
        0x080025b8:    2050        P       MOVS     r0,#0x50
        0x080025ba:    f3808811    ....    MSR      BASEPRI,r0
        0x080025be:    f3bf8f4f    ..O.    DSB      
        0x080025c2:    f3bf8f6f    ..o.    ISB      
        0x080025c6:    e7fe        ..      B        0x80025c6 ; vTaskDelay + 30
        0x080025c8:    f000f8a4    ....    BL       vTaskSuspendAll ; 0x8002714
        0x080025cc:    2100        .!      MOVS     r1,#0
        0x080025ce:    4610        .F      MOV      r0,r2
        0x080025d0:    f7fffa28    ..(.    BL       prvAddCurrentTaskToDelayedList ; 0x8001a24
        0x080025d4:    f000fd28    ..(.    BL       xTaskResumeAll ; 0x8003028
        0x080025d8:    2800        .(      CMP      r0,#0
        0x080025da:    d107        ..      BNE      0x80025ec ; vTaskDelay + 68
        0x080025dc:    4905        .I      LDR      r1,[pc,#20] ; [0x80025f4] = 0xe000ed04
        0x080025de:    f04f5080    O..P    MOV      r0,#0x10000000
        0x080025e2:    6008        .`      STR      r0,[r1,#0]
        0x080025e4:    f3bf8f4f    ..O.    DSB      
        0x080025e8:    f3bf8f6f    ..o.    ISB      
        0x080025ec:    bd10        ..      POP      {r4,pc}
    $d
        0x080025ee:    0000        ..      DCW    0
        0x080025f0:    20000024    $..     DCD    536870948
        0x080025f4:    e000ed04    ....    DCD    3758157060
    $t
    i.vTaskInternalSetTimeOutState
    vTaskInternalSetTimeOutState
        0x080025f8:    4902        .I      LDR      r1,[pc,#8] ; [0x8002604] = 0x20000024
        0x080025fa:    6a0a        .j      LDR      r2,[r1,#0x20]
        0x080025fc:    6002        .`      STR      r2,[r0,#0]
        0x080025fe:    68c9        .h      LDR      r1,[r1,#0xc]
        0x08002600:    6041        A`      STR      r1,[r0,#4]
        0x08002602:    4770        pG      BX       lr
    $d
        0x08002604:    20000024    $..     DCD    536870948
    $t
    i.vTaskMissedYield
    vTaskMissedYield
        0x08002608:    4901        .I      LDR      r1,[pc,#4] ; [0x8002610] = 0x20000024
        0x0800260a:    2001        .       MOVS     r0,#1
        0x0800260c:    61c8        .a      STR      r0,[r1,#0x1c]
        0x0800260e:    4770        pG      BX       lr
    $d
        0x08002610:    20000024    $..     DCD    536870948
    $t
    i.vTaskPlaceOnEventList
    vTaskPlaceOnEventList
        0x08002614:    b510        ..      PUSH     {r4,lr}
        0x08002616:    460c        .F      MOV      r4,r1
        0x08002618:    2800        .(      CMP      r0,#0
        0x0800261a:    d00a        ..      BEQ      0x8002632 ; vTaskPlaceOnEventList + 30
        0x0800261c:    4909        .I      LDR      r1,[pc,#36] ; [0x8002644] = 0x20000024
        0x0800261e:    6809        .h      LDR      r1,[r1,#0]
        0x08002620:    3118        .1      ADDS     r1,r1,#0x18
        0x08002622:    f7fffec3    ....    BL       vListInsert ; 0x80023ac
        0x08002626:    4620         F      MOV      r0,r4
        0x08002628:    e8bd4010    ...@    POP      {r4,lr}
        0x0800262c:    2101        .!      MOVS     r1,#1
        0x0800262e:    f7ffb9f9    ....    B        prvAddCurrentTaskToDelayedList ; 0x8001a24
        0x08002632:    2050        P       MOVS     r0,#0x50
        0x08002634:    f3808811    ....    MSR      BASEPRI,r0
        0x08002638:    f3bf8f4f    ..O.    DSB      
        0x0800263c:    f3bf8f6f    ..o.    ISB      
        0x08002640:    e7fe        ..      B        0x8002640 ; vTaskPlaceOnEventList + 44
    $d
        0x08002642:    0000        ..      DCW    0
        0x08002644:    20000024    $..     DCD    536870948
    $t
    i.vTaskPlaceOnEventListRestricted
    vTaskPlaceOnEventListRestricted
        0x08002648:    b570        p.      PUSH     {r4-r6,lr}
        0x0800264a:    460d        .F      MOV      r5,r1
        0x0800264c:    4614        .F      MOV      r4,r2
        0x0800264e:    2800        .(      CMP      r0,#0
        0x08002650:    d00d        ..      BEQ      0x800266e ; vTaskPlaceOnEventListRestricted + 38
        0x08002652:    490b        .I      LDR      r1,[pc,#44] ; [0x8002680] = 0x20000024
        0x08002654:    6809        .h      LDR      r1,[r1,#0]
        0x08002656:    3118        .1      ADDS     r1,r1,#0x18
        0x08002658:    f7fffec0    ....    BL       vListInsertEnd ; 0x80023dc
        0x0800265c:    b10c        ..      CBZ      r4,0x8002662 ; vTaskPlaceOnEventListRestricted + 26
        0x0800265e:    f04f35ff    O..5    MOV      r5,#0xffffffff
        0x08002662:    4621        !F      MOV      r1,r4
        0x08002664:    4628        (F      MOV      r0,r5
        0x08002666:    e8bd4070    ..p@    POP      {r4-r6,lr}
        0x0800266a:    f7ffb9db    ....    B        prvAddCurrentTaskToDelayedList ; 0x8001a24
        0x0800266e:    2050        P       MOVS     r0,#0x50
        0x08002670:    f3808811    ....    MSR      BASEPRI,r0
        0x08002674:    f3bf8f4f    ..O.    DSB      
        0x08002678:    f3bf8f6f    ..o.    ISB      
        0x0800267c:    e7fe        ..      B        0x800267c ; vTaskPlaceOnEventListRestricted + 52
    $d
        0x0800267e:    0000        ..      DCW    0
        0x08002680:    20000024    $..     DCD    536870948
    $t
    i.vTaskStartScheduler
    vTaskStartScheduler
        0x08002684:    b530        0.      PUSH     {r4,r5,lr}
        0x08002686:    b087        ..      SUB      sp,sp,#0x1c
        0x08002688:    2500        .%      MOVS     r5,#0
        0x0800268a:    9506        ..      STR      r5,[sp,#0x18]
        0x0800268c:    9505        ..      STR      r5,[sp,#0x14]
        0x0800268e:    aa04        ..      ADD      r2,sp,#0x10
        0x08002690:    a905        ..      ADD      r1,sp,#0x14
        0x08002692:    a806        ..      ADD      r0,sp,#0x18
        0x08002694:    f7fffe66    ..f.    BL       vApplicationGetIdleTaskMemory ; 0x8002364
        0x08002698:    e9dd1005    ....    LDRD     r1,r0,[sp,#0x14]
        0x0800269c:    e9cd5100    ...Q    STRD     r5,r1,[sp,#0]
        0x080026a0:    9002        ..      STR      r0,[sp,#8]
        0x080026a2:    2300        .#      MOVS     r3,#0
        0x080026a4:    a117        ..      ADR      r1,{pc}+0x60 ; 0x8002704
        0x080026a6:    4819        .H      LDR      r0,[pc,#100] ; [0x800270c] = 0x8001ce9
        0x080026a8:    9a04        ..      LDR      r2,[sp,#0x10]
        0x080026aa:    f000fb9b    ....    BL       xTaskCreateStatic ; 0x8002de4
        0x080026ae:    4c18        .L      LDR      r4,[pc,#96] ; [0x8002710] = 0x20000024
        0x080026b0:    62e0        .b      STR      r0,[r4,#0x2c]
        0x080026b2:    b108        ..      CBZ      r0,0x80026b8 ; vTaskStartScheduler + 52
        0x080026b4:    2001        .       MOVS     r0,#1
        0x080026b6:    e000        ..      B        0x80026ba ; vTaskStartScheduler + 54
        0x080026b8:    2000        .       MOVS     r0,#0
        0x080026ba:    2801        .(      CMP      r0,#1
        0x080026bc:    d101        ..      BNE      0x80026c2 ; vTaskStartScheduler + 62
        0x080026be:    f000fd17    ....    BL       xTimerCreateTimerTask ; 0x80030f0
        0x080026c2:    2801        .(      CMP      r0,#1
        0x080026c4:    d009        ..      BEQ      0x80026da ; vTaskStartScheduler + 86
        0x080026c6:    1c40        @.      ADDS     r0,r0,#1
        0x080026c8:    d119        ..      BNE      0x80026fe ; vTaskStartScheduler + 122
        0x080026ca:    2050        P       MOVS     r0,#0x50
        0x080026cc:    f3808811    ....    MSR      BASEPRI,r0
        0x080026d0:    f3bf8f4f    ..O.    DSB      
        0x080026d4:    f3bf8f6f    ..o.    ISB      
        0x080026d8:    e7fe        ..      B        0x80026d8 ; vTaskStartScheduler + 84
        0x080026da:    2050        P       MOVS     r0,#0x50
        0x080026dc:    f3808811    ....    MSR      BASEPRI,r0
        0x080026e0:    f3bf8f4f    ..O.    DSB      
        0x080026e4:    f3bf8f6f    ..o.    ISB      
        0x080026e8:    f04f30ff    O..0    MOV      r0,#0xffffffff
        0x080026ec:    62a0        .b      STR      r0,[r4,#0x28]
        0x080026ee:    2001        .       MOVS     r0,#1
        0x080026f0:    6160        `a      STR      r0,[r4,#0x14]
        0x080026f2:    60e5        .`      STR      r5,[r4,#0xc]
        0x080026f4:    b007        ..      ADD      sp,sp,#0x1c
        0x080026f6:    e8bd4030    ..0@    POP      {r4,r5,lr}
        0x080026fa:    f000b847    ..G.    B.W      xPortStartScheduler ; 0x800278c
        0x080026fe:    b007        ..      ADD      sp,sp,#0x1c
        0x08002700:    bd30        0.      POP      {r4,r5,pc}
    $d
        0x08002702:    0000        ..      DCW    0
        0x08002704:    454c4449    IDLE    DCD    1162626121
        0x08002708:    00000000    ....    DCD    0
        0x0800270c:    08001ce9    ....    DCD    134225129
        0x08002710:    20000024    $..     DCD    536870948
    $t
    i.vTaskSuspendAll
    vTaskSuspendAll
        0x08002714:    4802        .H      LDR      r0,[pc,#8] ; [0x8002720] = 0x20000024
        0x08002716:    6b01        .k      LDR      r1,[r0,#0x30]
        0x08002718:    1c49        I.      ADDS     r1,r1,#1
        0x0800271a:    6301        .c      STR      r1,[r0,#0x30]
        0x0800271c:    4770        pG      BX       lr
    $d
        0x0800271e:    0000        ..      DCW    0
        0x08002720:    20000024    $..     DCD    536870948
    $t
    i.vTaskSwitchContext
    vTaskSwitchContext
        0x08002724:    b510        ..      PUSH     {r4,lr}
        0x08002726:    4b17        .K      LDR      r3,[pc,#92] ; [0x8002784] = 0x20000024
        0x08002728:    6b18        .k      LDR      r0,[r3,#0x30]
        0x0800272a:    2800        .(      CMP      r0,#0
        0x0800272c:    d002        ..      BEQ      0x8002734 ; vTaskSwitchContext + 16
        0x0800272e:    2001        .       MOVS     r0,#1
        0x08002730:    61d8        .a      STR      r0,[r3,#0x1c]
        0x08002732:    bd10        ..      POP      {r4,pc}
        0x08002734:    2000        .       MOVS     r0,#0
        0x08002736:    61d8        .a      STR      r0,[r3,#0x1c]
        0x08002738:    6918        .i      LDR      r0,[r3,#0x10]
        0x0800273a:    4913        .I      LDR      r1,[pc,#76] ; [0x8002788] = 0x2000019c
        0x0800273c:    e001        ..      B        0x8002742 ; vTaskSwitchContext + 30
        0x0800273e:    b1c0        ..      CBZ      r0,0x8002772 ; vTaskSwitchContext + 78
        0x08002740:    1e40        @.      SUBS     r0,r0,#1
        0x08002742:    eb000280    ....    ADD      r2,r0,r0,LSL #2
        0x08002746:    f8512022    Q."     LDR      r2,[r1,r2,LSL #2]
        0x0800274a:    2a00        .*      CMP      r2,#0
        0x0800274c:    d0f7        ..      BEQ      0x800273e ; vTaskSwitchContext + 26
        0x0800274e:    eb000280    ....    ADD      r2,r0,r0,LSL #2
        0x08002752:    eb010182    ....    ADD      r1,r1,r2,LSL #2
        0x08002756:    684a        Jh      LDR      r2,[r1,#4]
        0x08002758:    6852        Rh      LDR      r2,[r2,#4]
        0x0800275a:    604a        J`      STR      r2,[r1,#4]
        0x0800275c:    f1010408    ....    ADD      r4,r1,#8
        0x08002760:    42a2        .B      CMP      r2,r4
        0x08002762:    d101        ..      BNE      0x8002768 ; vTaskSwitchContext + 68
        0x08002764:    6852        Rh      LDR      r2,[r2,#4]
        0x08002766:    604a        J`      STR      r2,[r1,#4]
        0x08002768:    6849        Ih      LDR      r1,[r1,#4]
        0x0800276a:    68c9        .h      LDR      r1,[r1,#0xc]
        0x0800276c:    6019        .`      STR      r1,[r3,#0]
        0x0800276e:    6118        .a      STR      r0,[r3,#0x10]
        0x08002770:    bd10        ..      POP      {r4,pc}
        0x08002772:    2050        P       MOVS     r0,#0x50
        0x08002774:    f3808811    ....    MSR      BASEPRI,r0
        0x08002778:    f3bf8f4f    ..O.    DSB      
        0x0800277c:    f3bf8f6f    ..o.    ISB      
        0x08002780:    e7fe        ..      B        0x8002780 ; vTaskSwitchContext + 92
    $d
        0x08002782:    0000        ..      DCW    0
        0x08002784:    20000024    $..     DCD    536870948
        0x08002788:    2000019c    ...     DCD    536871324
    $t
    i.xPortStartScheduler
    xPortStartScheduler
        0x0800278c:    b51c        ..      PUSH     {r2-r4,lr}
        0x0800278e:    4837        7H      LDR      r0,[pc,#220] ; [0x800286c] = 0xe000ed00
        0x08002790:    6801        .h      LDR      r1,[r0,#0]
        0x08002792:    4a37        7J      LDR      r2,[pc,#220] ; [0x8002870] = 0x410fc271
        0x08002794:    4291        .B      CMP      r1,r2
        0x08002796:    d107        ..      BNE      0x80027a8 ; xPortStartScheduler + 28
        0x08002798:    2050        P       MOVS     r0,#0x50
        0x0800279a:    f3808811    ....    MSR      BASEPRI,r0
        0x0800279e:    f3bf8f4f    ..O.    DSB      
        0x080027a2:    f3bf8f6f    ..o.    ISB      
        0x080027a6:    e7fe        ..      B        0x80027a6 ; xPortStartScheduler + 26
        0x080027a8:    6800        .h      LDR      r0,[r0,#0]
        0x080027aa:    4931        1I      LDR      r1,[pc,#196] ; [0x8002870] = 0x410fc271
        0x080027ac:    1e49        I.      SUBS     r1,r1,#1
        0x080027ae:    4288        .B      CMP      r0,r1
        0x080027b0:    d107        ..      BNE      0x80027c2 ; xPortStartScheduler + 54
        0x080027b2:    2050        P       MOVS     r0,#0x50
        0x080027b4:    f3808811    ....    MSR      BASEPRI,r0
        0x080027b8:    f3bf8f4f    ..O.    DSB      
        0x080027bc:    f3bf8f6f    ..o.    ISB      
        0x080027c0:    e7fe        ..      B        0x80027c0 ; xPortStartScheduler + 52
        0x080027c2:    492c        ,I      LDR      r1,[pc,#176] ; [0x8002874] = 0xe000e400
        0x080027c4:    7808        .x      LDRB     r0,[r1,#0]
        0x080027c6:    9001        ..      STR      r0,[sp,#4]
        0x080027c8:    20ff        .       MOVS     r0,#0xff
        0x080027ca:    7008        .p      STRB     r0,[r1,#0]
        0x080027cc:    7808        .x      LDRB     r0,[r1,#0]
        0x080027ce:    9000        ..      STR      r0,[sp,#0]
        0x080027d0:    f89d0000    ....    LDRB     r0,[sp,#0]
        0x080027d4:    f89d2000    ...     LDRB     r2,[sp,#0]
        0x080027d8:    f00000f0    ....    AND      r0,r0,#0xf0
        0x080027dc:    4290        .B      CMP      r0,r2
        0x080027de:    d007        ..      BEQ      0x80027f0 ; xPortStartScheduler + 100
        0x080027e0:    2050        P       MOVS     r0,#0x50
        0x080027e2:    f3808811    ....    MSR      BASEPRI,r0
        0x080027e6:    f3bf8f4f    ..O.    DSB      
        0x080027ea:    f3bf8f6f    ..o.    ISB      
        0x080027ee:    e7fe        ..      B        0x80027ee ; xPortStartScheduler + 98
        0x080027f0:    f89d0000    ....    LDRB     r0,[sp,#0]
        0x080027f4:    4c20         L      LDR      r4,[pc,#128] ; [0x8002878] = 0x20000098
        0x080027f6:    f0000050    ..P.    AND      r0,r0,#0x50
        0x080027fa:    7020         p      STRB     r0,[r4,#0]
        0x080027fc:    2007        .       MOVS     r0,#7
        0x080027fe:    60a0        .`      STR      r0,[r4,#8]
        0x08002800:    e006        ..      B        0x8002810 ; xPortStartScheduler + 132
        0x08002802:    68a0        .h      LDR      r0,[r4,#8]
        0x08002804:    1e40        @.      SUBS     r0,r0,#1
        0x08002806:    60a0        .`      STR      r0,[r4,#8]
        0x08002808:    f89d0000    ....    LDRB     r0,[sp,#0]
        0x0800280c:    0040        @.      LSLS     r0,r0,#1
        0x0800280e:    9000        ..      STR      r0,[sp,#0]
        0x08002810:    f89d0000    ....    LDRB     r0,[sp,#0]
        0x08002814:    0600        ..      LSLS     r0,r0,#24
        0x08002816:    d4f4        ..      BMI      0x8002802 ; xPortStartScheduler + 118
        0x08002818:    68a0        .h      LDR      r0,[r4,#8]
        0x0800281a:    2803        .(      CMP      r0,#3
        0x0800281c:    d007        ..      BEQ      0x800282e ; xPortStartScheduler + 162
        0x0800281e:    2050        P       MOVS     r0,#0x50
        0x08002820:    f3808811    ....    MSR      BASEPRI,r0
        0x08002824:    f3bf8f4f    ..O.    DSB      
        0x08002828:    f3bf8f6f    ..o.    ISB      
        0x0800282c:    e7fe        ..      B        0x800282c ; xPortStartScheduler + 160
        0x0800282e:    f44f7040    O.@p    MOV      r0,#0x300
        0x08002832:    60a0        .`      STR      r0,[r4,#8]
        0x08002834:    9801        ..      LDR      r0,[sp,#4]
        0x08002836:    7008        .p      STRB     r0,[r1,#0]
        0x08002838:    480c        .H      LDR      r0,[pc,#48] ; [0x800286c] = 0xe000ed00
        0x0800283a:    3020         0      ADDS     r0,r0,#0x20
        0x0800283c:    6801        .h      LDR      r1,[r0,#0]
        0x0800283e:    f4410170    A.p.    ORR      r1,r1,#0xf00000
        0x08002842:    6001        .`      STR      r1,[r0,#0]
        0x08002844:    6801        .h      LDR      r1,[r0,#0]
        0x08002846:    f0414170    A.pA    ORR      r1,r1,#0xf0000000
        0x0800284a:    6001        .`      STR      r1,[r0,#0]
        0x0800284c:    f7fffe3a    ..:.    BL       vPortSetupTimerInterrupt ; 0x80024c4
        0x08002850:    2000        .       MOVS     r0,#0
        0x08002852:    6060        ``      STR      r0,[r4,#4]
        0x08002854:    f7fdfcd0    ....    BL       __asm___6_port_c_39a90d8d__prvEnableVFP ; 0x80001f8
        0x08002858:    4808        .H      LDR      r0,[pc,#32] ; [0x800287c] = 0xe000ef34
        0x0800285a:    6801        .h      LDR      r1,[r0,#0]
        0x0800285c:    f0414140    A.@A    ORR      r1,r1,#0xc0000000
        0x08002860:    6001        .`      STR      r1,[r0,#0]
        0x08002862:    f7fdfcb5    ....    BL       __asm___6_port_c_39a90d8d__prvStartFirstTask ; 0x80001d0
        0x08002866:    2000        .       MOVS     r0,#0
        0x08002868:    bd1c        ..      POP      {r2-r4,pc}
    $d
        0x0800286a:    0000        ..      DCW    0
        0x0800286c:    e000ed00    ....    DCD    3758157056
        0x08002870:    410fc271    q..A    DCD    1091551857
        0x08002874:    e000e400    ....    DCD    3758154752
        0x08002878:    20000098    ...     DCD    536871064
        0x0800287c:    e000ef34    4...    DCD    3758157620
    $t
    i.xPortSysTickHandler
    xPortSysTickHandler
        0x08002880:    b510        ..      PUSH     {r4,lr}
        0x08002882:    2050        P       MOVS     r0,#0x50
        0x08002884:    f3808811    ....    MSR      BASEPRI,r0
        0x08002888:    f3bf8f4f    ..O.    DSB      
        0x0800288c:    f3bf8f6f    ..o.    ISB      
        0x08002890:    f000faea    ....    BL       xTaskIncrementTick ; 0x8002e68
        0x08002894:    b118        ..      CBZ      r0,0x800289e ; xPortSysTickHandler + 30
        0x08002896:    4904        .I      LDR      r1,[pc,#16] ; [0x80028a8] = 0xe000ed04
        0x08002898:    f04f5080    O..P    MOV      r0,#0x10000000
        0x0800289c:    6008        .`      STR      r0,[r1,#0]
        0x0800289e:    2000        .       MOVS     r0,#0
        0x080028a0:    f3808811    ....    MSR      BASEPRI,r0
        0x080028a4:    bd10        ..      POP      {r4,pc}
    $d
        0x080028a6:    0000        ..      DCW    0
        0x080028a8:    e000ed04    ....    DCD    3758157060
    $t
    i.xQueueGenericCreateStatic
    xQueueGenericCreateStatic
        0x080028ac:    b538        8.      PUSH     {r3-r5,lr}
        0x080028ae:    9d04        ..      LDR      r5,[sp,#0x10]
        0x080028b0:    2800        .(      CMP      r0,#0
        0x080028b2:    d004        ..      BEQ      0x80028be ; xQueueGenericCreateStatic + 18
        0x080028b4:    b15b        [.      CBZ      r3,0x80028ce ; xQueueGenericCreateStatic + 34
        0x080028b6:    b102        ..      CBZ      r2,0x80028ba ; xQueueGenericCreateStatic + 14
        0x080028b8:    b189        ..      CBZ      r1,0x80028de ; xQueueGenericCreateStatic + 50
        0x080028ba:    b1c2        ..      CBZ      r2,0x80028ee ; xQueueGenericCreateStatic + 66
        0x080028bc:    e020         .      B        0x8002900 ; xQueueGenericCreateStatic + 84
        0x080028be:    2050        P       MOVS     r0,#0x50
        0x080028c0:    f3808811    ....    MSR      BASEPRI,r0
        0x080028c4:    f3bf8f4f    ..O.    DSB      
        0x080028c8:    f3bf8f6f    ..o.    ISB      
        0x080028cc:    e7fe        ..      B        0x80028cc ; xQueueGenericCreateStatic + 32
        0x080028ce:    2050        P       MOVS     r0,#0x50
        0x080028d0:    f3808811    ....    MSR      BASEPRI,r0
        0x080028d4:    f3bf8f4f    ..O.    DSB      
        0x080028d8:    f3bf8f6f    ..o.    ISB      
        0x080028dc:    e7fe        ..      B        0x80028dc ; xQueueGenericCreateStatic + 48
        0x080028de:    2050        P       MOVS     r0,#0x50
        0x080028e0:    f3808811    ....    MSR      BASEPRI,r0
        0x080028e4:    f3bf8f4f    ..O.    DSB      
        0x080028e8:    f3bf8f6f    ..o.    ISB      
        0x080028ec:    e7fe        ..      B        0x80028ec ; xQueueGenericCreateStatic + 64
        0x080028ee:    b139        9.      CBZ      r1,0x8002900 ; xQueueGenericCreateStatic + 84
        0x080028f0:    2050        P       MOVS     r0,#0x50
        0x080028f2:    f3808811    ....    MSR      BASEPRI,r0
        0x080028f6:    f3bf8f4f    ..O.    DSB      
        0x080028fa:    f3bf8f6f    ..o.    ISB      
        0x080028fe:    e7fe        ..      B        0x80028fe ; xQueueGenericCreateStatic + 82
        0x08002900:    2450        P$      MOVS     r4,#0x50
        0x08002902:    9400        ..      STR      r4,[sp,#0]
        0x08002904:    461c        .F      MOV      r4,r3
        0x08002906:    2301        .#      MOVS     r3,#1
        0x08002908:    f8843046    ..F0    STRB     r3,[r4,#0x46]
        0x0800290c:    462b        +F      MOV      r3,r5
        0x0800290e:    9400        ..      STR      r4,[sp,#0]
        0x08002910:    f7fff9fe    ....    BL       prvInitialiseNewQueue ; 0x8001d10
        0x08002914:    4620         F      MOV      r0,r4
        0x08002916:    bd38        8.      POP      {r3-r5,pc}
    i.xQueueGenericReset
    xQueueGenericReset
        0x08002918:    b570        p.      PUSH     {r4-r6,lr}
        0x0800291a:    4604        .F      MOV      r4,r0
        0x0800291c:    460d        .F      MOV      r5,r1
        0x0800291e:    2c00        .,      CMP      r4,#0
        0x08002920:    d025        %.      BEQ      0x800296e ; xQueueGenericReset + 86
        0x08002922:    f7fffd67    ..g.    BL       vPortEnterCritical ; 0x80023f4
        0x08002926:    e9d4200f    ...     LDRD     r2,r0,[r4,#0x3c]
        0x0800292a:    6821        !h      LDR      r1,[r4,#0]
        0x0800292c:    fb021100    ....    MLA      r1,r2,r0,r1
        0x08002930:    60a1        .`      STR      r1,[r4,#8]
        0x08002932:    2100        .!      MOVS     r1,#0
        0x08002934:    63a1        .c      STR      r1,[r4,#0x38]
        0x08002936:    6821        !h      LDR      r1,[r4,#0]
        0x08002938:    6061        a`      STR      r1,[r4,#4]
        0x0800293a:    6be0        .k      LDR      r0,[r4,#0x3c]
        0x0800293c:    6822        "h      LDR      r2,[r4,#0]
        0x0800293e:    6c21        !l      LDR      r1,[r4,#0x40]
        0x08002940:    1e40        @.      SUBS     r0,r0,#1
        0x08002942:    fb002101    ...!    MLA      r1,r0,r1,r2
        0x08002946:    60e1        .`      STR      r1,[r4,#0xc]
        0x08002948:    f04f30ff    O..0    MOV      r0,#0xffffffff
        0x0800294c:    f8840044    ..D.    STRB     r0,[r4,#0x44]
        0x08002950:    f8840045    ..E.    STRB     r0,[r4,#0x45]
        0x08002954:    f1040010    ....    ADD      r0,r4,#0x10
        0x08002958:    b18d        ..      CBZ      r5,0x800297e ; xQueueGenericReset + 102
        0x0800295a:    f7fffd19    ....    BL       vListInitialise ; 0x8002390
        0x0800295e:    f1040024    ..$.    ADD      r0,r4,#0x24
        0x08002962:    f7fffd15    ....    BL       vListInitialise ; 0x8002390
        0x08002966:    f7fffd65    ..e.    BL       vPortExitCritical ; 0x8002434
        0x0800296a:    2001        .       MOVS     r0,#1
        0x0800296c:    bd70        p.      POP      {r4-r6,pc}
        0x0800296e:    2050        P       MOVS     r0,#0x50
        0x08002970:    f3808811    ....    MSR      BASEPRI,r0
        0x08002974:    f3bf8f4f    ..O.    DSB      
        0x08002978:    f3bf8f6f    ..o.    ISB      
        0x0800297c:    e7fe        ..      B        0x800297c ; xQueueGenericReset + 100
        0x0800297e:    6921        !i      LDR      r1,[r4,#0x10]
        0x08002980:    2900        .)      CMP      r1,#0
        0x08002982:    d0f0        ..      BEQ      0x8002966 ; xQueueGenericReset + 78
        0x08002984:    f000fb14    ....    BL       xTaskRemoveFromEventList ; 0x8002fb0
        0x08002988:    2800        .(      CMP      r0,#0
        0x0800298a:    d0ec        ..      BEQ      0x8002966 ; xQueueGenericReset + 78
        0x0800298c:    4904        .I      LDR      r1,[pc,#16] ; [0x80029a0] = 0xe000ed04
        0x0800298e:    f04f5080    O..P    MOV      r0,#0x10000000
        0x08002992:    6008        .`      STR      r0,[r1,#0]
        0x08002994:    f3bf8f4f    ..O.    DSB      
        0x08002998:    f3bf8f6f    ..o.    ISB      
        0x0800299c:    e7e3        ..      B        0x8002966 ; xQueueGenericReset + 78
    $d
        0x0800299e:    0000        ..      DCW    0
        0x080029a0:    e000ed04    ....    DCD    3758157060
    $t
    i.xQueueGenericSend
    xQueueGenericSend
        0x080029a4:    e92d47ff    -..G    PUSH     {r0-r10,lr}
        0x080029a8:    b082        ..      SUB      sp,sp,#8
        0x080029aa:    4604        .F      MOV      r4,r0
        0x080029ac:    468a        .F      MOV      r10,r1
        0x080029ae:    461e        .F      MOV      r6,r3
        0x080029b0:    2500        .%      MOVS     r5,#0
        0x080029b2:    2c00        .,      CMP      r4,#0
        0x080029b4:    d003        ..      BEQ      0x80029be ; xQueueGenericSend + 26
        0x080029b6:    f1ba0f00    ....    CMP      r10,#0
        0x080029ba:    d008        ..      BEQ      0x80029ce ; xQueueGenericSend + 42
        0x080029bc:    e011        ..      B        0x80029e2 ; xQueueGenericSend + 62
        0x080029be:    2050        P       MOVS     r0,#0x50
        0x080029c0:    f3808811    ....    MSR      BASEPRI,r0
        0x080029c4:    f3bf8f4f    ..O.    DSB      
        0x080029c8:    f3bf8f6f    ..o.    ISB      
        0x080029cc:    e7fe        ..      B        0x80029cc ; xQueueGenericSend + 40
        0x080029ce:    6c20         l      LDR      r0,[r4,#0x40]
        0x080029d0:    b138        8.      CBZ      r0,0x80029e2 ; xQueueGenericSend + 62
        0x080029d2:    2050        P       MOVS     r0,#0x50
        0x080029d4:    f3808811    ....    MSR      BASEPRI,r0
        0x080029d8:    f3bf8f4f    ..O.    DSB      
        0x080029dc:    f3bf8f6f    ..o.    ISB      
        0x080029e0:    e7fe        ..      B        0x80029e0 ; xQueueGenericSend + 60
        0x080029e2:    2e02        ..      CMP      r6,#2
        0x080029e4:    d10a        ..      BNE      0x80029fc ; xQueueGenericSend + 88
        0x080029e6:    6be0        .k      LDR      r0,[r4,#0x3c]
        0x080029e8:    2801        .(      CMP      r0,#1
        0x080029ea:    d007        ..      BEQ      0x80029fc ; xQueueGenericSend + 88
        0x080029ec:    2050        P       MOVS     r0,#0x50
        0x080029ee:    f3808811    ....    MSR      BASEPRI,r0
        0x080029f2:    f3bf8f4f    ..O.    DSB      
        0x080029f6:    f3bf8f6f    ..o.    ISB      
        0x080029fa:    e7fe        ..      B        0x80029fa ; xQueueGenericSend + 86
        0x080029fc:    f000fa20    .. .    BL       xTaskGetSchedulerState ; 0x8002e40
        0x08002a00:    b948        H.      CBNZ     r0,0x8002a16 ; xQueueGenericSend + 114
        0x08002a02:    9804        ..      LDR      r0,[sp,#0x10]
        0x08002a04:    b138        8.      CBZ      r0,0x8002a16 ; xQueueGenericSend + 114
        0x08002a06:    2050        P       MOVS     r0,#0x50
        0x08002a08:    f3808811    ....    MSR      BASEPRI,r0
        0x08002a0c:    f3bf8f4f    ..O.    DSB      
        0x08002a10:    f3bf8f6f    ..o.    ISB      
        0x08002a14:    e7fe        ..      B        0x8002a14 ; xQueueGenericSend + 112
        0x08002a16:    f04f0900    O...    MOV      r9,#0
        0x08002a1a:    f04f5780    O..W    MOV      r7,#0x10000000
        0x08002a1e:    f8df80e4    ....    LDR      r8,[pc,#228] ; [0x8002b04] = 0xe000ed04
        0x08002a22:    f7fffce7    ....    BL       vPortEnterCritical ; 0x80023f4
        0x08002a26:    6ba0        .k      LDR      r0,[r4,#0x38]
        0x08002a28:    6be1        .k      LDR      r1,[r4,#0x3c]
        0x08002a2a:    4288        .B      CMP      r0,r1
        0x08002a2c:    d305        ..      BCC      0x8002a3a ; xQueueGenericSend + 150
        0x08002a2e:    2e02        ..      CMP      r6,#2
        0x08002a30:    d003        ..      BEQ      0x8002a3a ; xQueueGenericSend + 150
        0x08002a32:    9804        ..      LDR      r0,[sp,#0x10]
        0x08002a34:    b308        ..      CBZ      r0,0x8002a7a ; xQueueGenericSend + 214
        0x08002a36:    b325        %.      CBZ      r5,0x8002a82 ; xQueueGenericSend + 222
        0x08002a38:    e027        '.      B        0x8002a8a ; xQueueGenericSend + 230
        0x08002a3a:    4632        2F      MOV      r2,r6
        0x08002a3c:    4651        QF      MOV      r1,r10
        0x08002a3e:    4620         F      MOV      r0,r4
        0x08002a40:    f7fff8c2    ....    BL       prvCopyDataToQueue ; 0x8001bc8
        0x08002a44:    6a61        aj      LDR      r1,[r4,#0x24]
        0x08002a46:    b159        Y.      CBZ      r1,0x8002a60 ; xQueueGenericSend + 188
        0x08002a48:    f1040024    ..$.    ADD      r0,r4,#0x24
        0x08002a4c:    f000fab0    ....    BL       xTaskRemoveFromEventList ; 0x8002fb0
        0x08002a50:    b168        h.      CBZ      r0,0x8002a6e ; xQueueGenericSend + 202
        0x08002a52:    f8c87000    ...p    STR      r7,[r8,#0]
        0x08002a56:    f3bf8f4f    ..O.    DSB      
        0x08002a5a:    f3bf8f6f    ..o.    ISB      
        0x08002a5e:    e006        ..      B        0x8002a6e ; xQueueGenericSend + 202
        0x08002a60:    b128        (.      CBZ      r0,0x8002a6e ; xQueueGenericSend + 202
        0x08002a62:    f8c87000    ...p    STR      r7,[r8,#0]
        0x08002a66:    f3bf8f4f    ..O.    DSB      
        0x08002a6a:    f3bf8f6f    ..o.    ISB      
        0x08002a6e:    f7fffce1    ....    BL       vPortExitCritical ; 0x8002434
        0x08002a72:    2001        .       MOVS     r0,#1
        0x08002a74:    b006        ..      ADD      sp,sp,#0x18
        0x08002a76:    e8bd87f0    ....    POP      {r4-r10,pc}
        0x08002a7a:    f7fffcdb    ....    BL       vPortExitCritical ; 0x8002434
        0x08002a7e:    2000        .       MOVS     r0,#0
        0x08002a80:    e7f8        ..      B        0x8002a74 ; xQueueGenericSend + 208
        0x08002a82:    4668        hF      MOV      r0,sp
        0x08002a84:    f7fffdb8    ....    BL       vTaskInternalSetTimeOutState ; 0x80025f8
        0x08002a88:    2501        .%      MOVS     r5,#1
        0x08002a8a:    f7fffcd3    ....    BL       vPortExitCritical ; 0x8002434
        0x08002a8e:    f7fffe41    ..A.    BL       vTaskSuspendAll ; 0x8002714
        0x08002a92:    f7fffcaf    ....    BL       vPortEnterCritical ; 0x80023f4
        0x08002a96:    f9940044    ..D.    LDRSB    r0,[r4,#0x44]
        0x08002a9a:    1c40        @.      ADDS     r0,r0,#1
        0x08002a9c:    d101        ..      BNE      0x8002aa2 ; xQueueGenericSend + 254
        0x08002a9e:    f8849044    ..D.    STRB     r9,[r4,#0x44]
        0x08002aa2:    f9940045    ..E.    LDRSB    r0,[r4,#0x45]
        0x08002aa6:    1c40        @.      ADDS     r0,r0,#1
        0x08002aa8:    d101        ..      BNE      0x8002aae ; xQueueGenericSend + 266
        0x08002aaa:    f8849045    ..E.    STRB     r9,[r4,#0x45]
        0x08002aae:    f7fffcc1    ....    BL       vPortExitCritical ; 0x8002434
        0x08002ab2:    a904        ..      ADD      r1,sp,#0x10
        0x08002ab4:    4668        hF      MOV      r0,sp
        0x08002ab6:    f000f925    ..%.    BL       xTaskCheckForTimeOut ; 0x8002d04
        0x08002aba:    b130        0.      CBZ      r0,0x8002aca ; xQueueGenericSend + 294
        0x08002abc:    4620         F      MOV      r0,r4
        0x08002abe:    f7fffb87    ....    BL       prvUnlockQueue ; 0x80021d0
        0x08002ac2:    f000fab1    ....    BL       xTaskResumeAll ; 0x8003028
        0x08002ac6:    2000        .       MOVS     r0,#0
        0x08002ac8:    e7d4        ..      B        0x8002a74 ; xQueueGenericSend + 208
        0x08002aca:    4620         F      MOV      r0,r4
        0x08002acc:    f7fffa09    ....    BL       prvIsQueueFull ; 0x8001ee2
        0x08002ad0:    b190        ..      CBZ      r0,0x8002af8 ; xQueueGenericSend + 340
        0x08002ad2:    f1040010    ....    ADD      r0,r4,#0x10
        0x08002ad6:    9904        ..      LDR      r1,[sp,#0x10]
        0x08002ad8:    f7fffd9c    ....    BL       vTaskPlaceOnEventList ; 0x8002614
        0x08002adc:    4620         F      MOV      r0,r4
        0x08002ade:    f7fffb77    ..w.    BL       prvUnlockQueue ; 0x80021d0
        0x08002ae2:    f000faa1    ....    BL       xTaskResumeAll ; 0x8003028
        0x08002ae6:    2800        .(      CMP      r0,#0
        0x08002ae8:    d19b        ..      BNE      0x8002a22 ; xQueueGenericSend + 126
        0x08002aea:    f8c87000    ...p    STR      r7,[r8,#0]
        0x08002aee:    f3bf8f4f    ..O.    DSB      
        0x08002af2:    f3bf8f6f    ..o.    ISB      
        0x08002af6:    e794        ..      B        0x8002a22 ; xQueueGenericSend + 126
        0x08002af8:    4620         F      MOV      r0,r4
        0x08002afa:    f7fffb69    ..i.    BL       prvUnlockQueue ; 0x80021d0
        0x08002afe:    f000fa93    ....    BL       xTaskResumeAll ; 0x8003028
        0x08002b02:    e78e        ..      B        0x8002a22 ; xQueueGenericSend + 126
    $d
        0x08002b04:    e000ed04    ....    DCD    3758157060
    $t
    i.xQueueGenericSendFromISR
    xQueueGenericSendFromISR
        0x08002b08:    e92d47f0    -..G    PUSH     {r4-r10,lr}
        0x08002b0c:    4604        .F      MOV      r4,r0
        0x08002b0e:    4689        .F      MOV      r9,r1
        0x08002b10:    4690        .F      MOV      r8,r2
        0x08002b12:    461f        .F      MOV      r7,r3
        0x08002b14:    2c00        .,      CMP      r4,#0
        0x08002b16:    d003        ..      BEQ      0x8002b20 ; xQueueGenericSendFromISR + 24
        0x08002b18:    f1b90f00    ....    CMP      r9,#0
        0x08002b1c:    d008        ..      BEQ      0x8002b30 ; xQueueGenericSendFromISR + 40
        0x08002b1e:    e011        ..      B        0x8002b44 ; xQueueGenericSendFromISR + 60
        0x08002b20:    2050        P       MOVS     r0,#0x50
        0x08002b22:    f3808811    ....    MSR      BASEPRI,r0
        0x08002b26:    f3bf8f4f    ..O.    DSB      
        0x08002b2a:    f3bf8f6f    ..o.    ISB      
        0x08002b2e:    e7fe        ..      B        0x8002b2e ; xQueueGenericSendFromISR + 38
        0x08002b30:    6c20         l      LDR      r0,[r4,#0x40]
        0x08002b32:    b138        8.      CBZ      r0,0x8002b44 ; xQueueGenericSendFromISR + 60
        0x08002b34:    2050        P       MOVS     r0,#0x50
        0x08002b36:    f3808811    ....    MSR      BASEPRI,r0
        0x08002b3a:    f3bf8f4f    ..O.    DSB      
        0x08002b3e:    f3bf8f6f    ..o.    ISB      
        0x08002b42:    e7fe        ..      B        0x8002b42 ; xQueueGenericSendFromISR + 58
        0x08002b44:    2f02        ./      CMP      r7,#2
        0x08002b46:    d10a        ..      BNE      0x8002b5e ; xQueueGenericSendFromISR + 86
        0x08002b48:    6be0        .k      LDR      r0,[r4,#0x3c]
        0x08002b4a:    2801        .(      CMP      r0,#1
        0x08002b4c:    d007        ..      BEQ      0x8002b5e ; xQueueGenericSendFromISR + 86
        0x08002b4e:    2050        P       MOVS     r0,#0x50
        0x08002b50:    f3808811    ....    MSR      BASEPRI,r0
        0x08002b54:    f3bf8f4f    ..O.    DSB      
        0x08002b58:    f3bf8f6f    ..o.    ISB      
        0x08002b5c:    e7fe        ..      B        0x8002b5c ; xQueueGenericSendFromISR + 84
        0x08002b5e:    f7fffcc3    ....    BL       vPortValidateInterruptPriority ; 0x80024e8
        0x08002b62:    2050        P       MOVS     r0,#0x50
        0x08002b64:    f3ef8611    ....    MRS      r6,BASEPRI
        0x08002b68:    f3808811    ....    MSR      BASEPRI,r0
        0x08002b6c:    f3bf8f4f    ..O.    DSB      
        0x08002b70:    f3bf8f6f    ..o.    ISB      
        0x08002b74:    6ba0        .k      LDR      r0,[r4,#0x38]
        0x08002b76:    6be1        .k      LDR      r1,[r4,#0x3c]
        0x08002b78:    4288        .B      CMP      r0,r1
        0x08002b7a:    d306        ..      BCC      0x8002b8a ; xQueueGenericSendFromISR + 130
        0x08002b7c:    2f02        ./      CMP      r7,#2
        0x08002b7e:    d004        ..      BEQ      0x8002b8a ; xQueueGenericSendFromISR + 130
        0x08002b80:    2000        .       MOVS     r0,#0
        0x08002b82:    f3868811    ....    MSR      BASEPRI,r6
        0x08002b86:    e8bd87f0    ....    POP      {r4-r10,pc}
        0x08002b8a:    f9945045    ..EP    LDRSB    r5,[r4,#0x45]
        0x08002b8e:    6ba0        .k      LDR      r0,[r4,#0x38]
        0x08002b90:    463a        :F      MOV      r2,r7
        0x08002b92:    4649        IF      MOV      r1,r9
        0x08002b94:    4620         F      MOV      r0,r4
        0x08002b96:    f7fff817    ....    BL       prvCopyDataToQueue ; 0x8001bc8
        0x08002b9a:    1c68        h.      ADDS     r0,r5,#1
        0x08002b9c:    d004        ..      BEQ      0x8002ba8 ; xQueueGenericSendFromISR + 160
        0x08002b9e:    1c6d        m.      ADDS     r5,r5,#1
        0x08002ba0:    f8845045    ..EP    STRB     r5,[r4,#0x45]
        0x08002ba4:    2001        .       MOVS     r0,#1
        0x08002ba6:    e7ec        ..      B        0x8002b82 ; xQueueGenericSendFromISR + 122
        0x08002ba8:    6a60        `j      LDR      r0,[r4,#0x24]
        0x08002baa:    2800        .(      CMP      r0,#0
        0x08002bac:    d0fa        ..      BEQ      0x8002ba4 ; xQueueGenericSendFromISR + 156
        0x08002bae:    f1040024    ..$.    ADD      r0,r4,#0x24
        0x08002bb2:    f000f9fd    ....    BL       xTaskRemoveFromEventList ; 0x8002fb0
        0x08002bb6:    2800        .(      CMP      r0,#0
        0x08002bb8:    d0f4        ..      BEQ      0x8002ba4 ; xQueueGenericSendFromISR + 156
        0x08002bba:    f1b80f00    ....    CMP      r8,#0
        0x08002bbe:    d0f1        ..      BEQ      0x8002ba4 ; xQueueGenericSendFromISR + 156
        0x08002bc0:    2001        .       MOVS     r0,#1
        0x08002bc2:    f8c80000    ....    STR      r0,[r8,#0]
        0x08002bc6:    e7ed        ..      B        0x8002ba4 ; xQueueGenericSendFromISR + 156
    i.xQueueReceive
    xQueueReceive
        0x08002bc8:    e92d47f7    -..G    PUSH     {r0-r2,r4-r10,lr}
        0x08002bcc:    b083        ..      SUB      sp,sp,#0xc
        0x08002bce:    4604        .F      MOV      r4,r0
        0x08002bd0:    468a        .F      MOV      r10,r1
        0x08002bd2:    2600        .&      MOVS     r6,#0
        0x08002bd4:    2c00        .,      CMP      r4,#0
        0x08002bd6:    d003        ..      BEQ      0x8002be0 ; xQueueReceive + 24
        0x08002bd8:    f1ba0f00    ....    CMP      r10,#0
        0x08002bdc:    d008        ..      BEQ      0x8002bf0 ; xQueueReceive + 40
        0x08002bde:    e011        ..      B        0x8002c04 ; xQueueReceive + 60
        0x08002be0:    2050        P       MOVS     r0,#0x50
        0x08002be2:    f3808811    ....    MSR      BASEPRI,r0
        0x08002be6:    f3bf8f4f    ..O.    DSB      
        0x08002bea:    f3bf8f6f    ..o.    ISB      
        0x08002bee:    e7fe        ..      B        0x8002bee ; xQueueReceive + 38
        0x08002bf0:    6c20         l      LDR      r0,[r4,#0x40]
        0x08002bf2:    b138        8.      CBZ      r0,0x8002c04 ; xQueueReceive + 60
        0x08002bf4:    2050        P       MOVS     r0,#0x50
        0x08002bf6:    f3808811    ....    MSR      BASEPRI,r0
        0x08002bfa:    f3bf8f4f    ..O.    DSB      
        0x08002bfe:    f3bf8f6f    ..o.    ISB      
        0x08002c02:    e7fe        ..      B        0x8002c02 ; xQueueReceive + 58
        0x08002c04:    f000f91c    ....    BL       xTaskGetSchedulerState ; 0x8002e40
        0x08002c08:    b948        H.      CBNZ     r0,0x8002c1e ; xQueueReceive + 86
        0x08002c0a:    9805        ..      LDR      r0,[sp,#0x14]
        0x08002c0c:    b138        8.      CBZ      r0,0x8002c1e ; xQueueReceive + 86
        0x08002c0e:    2050        P       MOVS     r0,#0x50
        0x08002c10:    f3808811    ....    MSR      BASEPRI,r0
        0x08002c14:    f3bf8f4f    ..O.    DSB      
        0x08002c18:    f3bf8f6f    ..o.    ISB      
        0x08002c1c:    e7fe        ..      B        0x8002c1c ; xQueueReceive + 84
        0x08002c1e:    2700        .'      MOVS     r7,#0
        0x08002c20:    f04f5880    O..X    MOV      r8,#0x10000000
        0x08002c24:    f8df90d8    ....    LDR      r9,[pc,#216] ; [0x8002d00] = 0xe000ed04
        0x08002c28:    f7fffbe4    ....    BL       vPortEnterCritical ; 0x80023f4
        0x08002c2c:    6ba5        .k      LDR      r5,[r4,#0x38]
        0x08002c2e:    b1c5        ..      CBZ      r5,0x8002c62 ; xQueueReceive + 154
        0x08002c30:    4651        QF      MOV      r1,r10
        0x08002c32:    4620         F      MOV      r0,r4
        0x08002c34:    f7feffb4    ....    BL       prvCopyDataFromQueue ; 0x8001ba0
        0x08002c38:    1e6d        m.      SUBS     r5,r5,#1
        0x08002c3a:    63a5        .c      STR      r5,[r4,#0x38]
        0x08002c3c:    6920         i      LDR      r0,[r4,#0x10]
        0x08002c3e:    b150        P.      CBZ      r0,0x8002c56 ; xQueueReceive + 142
        0x08002c40:    f1040010    ....    ADD      r0,r4,#0x10
        0x08002c44:    f000f9b4    ....    BL       xTaskRemoveFromEventList ; 0x8002fb0
        0x08002c48:    b128        (.      CBZ      r0,0x8002c56 ; xQueueReceive + 142
        0x08002c4a:    f8c98000    ....    STR      r8,[r9,#0]
        0x08002c4e:    f3bf8f4f    ..O.    DSB      
        0x08002c52:    f3bf8f6f    ..o.    ISB      
        0x08002c56:    f7fffbed    ....    BL       vPortExitCritical ; 0x8002434
        0x08002c5a:    2001        .       MOVS     r0,#1
        0x08002c5c:    b006        ..      ADD      sp,sp,#0x18
        0x08002c5e:    e8bd87f0    ....    POP      {r4-r10,pc}
        0x08002c62:    9805        ..      LDR      r0,[sp,#0x14]
        0x08002c64:    b108        ..      CBZ      r0,0x8002c6a ; xQueueReceive + 162
        0x08002c66:    b126        &.      CBZ      r6,0x8002c72 ; xQueueReceive + 170
        0x08002c68:    e007        ..      B        0x8002c7a ; xQueueReceive + 178
        0x08002c6a:    f7fffbe3    ....    BL       vPortExitCritical ; 0x8002434
        0x08002c6e:    2000        .       MOVS     r0,#0
        0x08002c70:    e7f4        ..      B        0x8002c5c ; xQueueReceive + 148
        0x08002c72:    a801        ..      ADD      r0,sp,#4
        0x08002c74:    f7fffcc0    ....    BL       vTaskInternalSetTimeOutState ; 0x80025f8
        0x08002c78:    2601        .&      MOVS     r6,#1
        0x08002c7a:    f7fffbdb    ....    BL       vPortExitCritical ; 0x8002434
        0x08002c7e:    f7fffd49    ..I.    BL       vTaskSuspendAll ; 0x8002714
        0x08002c82:    f7fffbb7    ....    BL       vPortEnterCritical ; 0x80023f4
        0x08002c86:    f9940044    ..D.    LDRSB    r0,[r4,#0x44]
        0x08002c8a:    1c40        @.      ADDS     r0,r0,#1
        0x08002c8c:    d101        ..      BNE      0x8002c92 ; xQueueReceive + 202
        0x08002c8e:    f8847044    ..Dp    STRB     r7,[r4,#0x44]
        0x08002c92:    f9940045    ..E.    LDRSB    r0,[r4,#0x45]
        0x08002c96:    1c40        @.      ADDS     r0,r0,#1
        0x08002c98:    d101        ..      BNE      0x8002c9e ; xQueueReceive + 214
        0x08002c9a:    f8847045    ..Ep    STRB     r7,[r4,#0x45]
        0x08002c9e:    f7fffbc9    ....    BL       vPortExitCritical ; 0x8002434
        0x08002ca2:    a905        ..      ADD      r1,sp,#0x14
        0x08002ca4:    a801        ..      ADD      r0,sp,#4
        0x08002ca6:    f000f82d    ..-.    BL       xTaskCheckForTimeOut ; 0x8002d04
        0x08002caa:    b158        X.      CBZ      r0,0x8002cc4 ; xQueueReceive + 252
        0x08002cac:    4620         F      MOV      r0,r4
        0x08002cae:    f7fffa8f    ....    BL       prvUnlockQueue ; 0x80021d0
        0x08002cb2:    f000f9b9    ....    BL       xTaskResumeAll ; 0x8003028
        0x08002cb6:    4620         F      MOV      r0,r4
        0x08002cb8:    f7fff906    ....    BL       prvIsQueueEmpty ; 0x8001ec8
        0x08002cbc:    2800        .(      CMP      r0,#0
        0x08002cbe:    d0b3        ..      BEQ      0x8002c28 ; xQueueReceive + 96
        0x08002cc0:    2000        .       MOVS     r0,#0
        0x08002cc2:    e7cb        ..      B        0x8002c5c ; xQueueReceive + 148
        0x08002cc4:    4620         F      MOV      r0,r4
        0x08002cc6:    f7fff8ff    ....    BL       prvIsQueueEmpty ; 0x8001ec8
        0x08002cca:    b190        ..      CBZ      r0,0x8002cf2 ; xQueueReceive + 298
        0x08002ccc:    f1040024    ..$.    ADD      r0,r4,#0x24
        0x08002cd0:    9905        ..      LDR      r1,[sp,#0x14]
        0x08002cd2:    f7fffc9f    ....    BL       vTaskPlaceOnEventList ; 0x8002614
        0x08002cd6:    4620         F      MOV      r0,r4
        0x08002cd8:    f7fffa7a    ..z.    BL       prvUnlockQueue ; 0x80021d0
        0x08002cdc:    f000f9a4    ....    BL       xTaskResumeAll ; 0x8003028
        0x08002ce0:    2800        .(      CMP      r0,#0
        0x08002ce2:    d1a1        ..      BNE      0x8002c28 ; xQueueReceive + 96
        0x08002ce4:    f8c98000    ....    STR      r8,[r9,#0]
        0x08002ce8:    f3bf8f4f    ..O.    DSB      
        0x08002cec:    f3bf8f6f    ..o.    ISB      
        0x08002cf0:    e79a        ..      B        0x8002c28 ; xQueueReceive + 96
        0x08002cf2:    4620         F      MOV      r0,r4
        0x08002cf4:    f7fffa6c    ..l.    BL       prvUnlockQueue ; 0x80021d0
        0x08002cf8:    f000f996    ....    BL       xTaskResumeAll ; 0x8003028
        0x08002cfc:    e794        ..      B        0x8002c28 ; xQueueReceive + 96
    $d
        0x08002cfe:    0000        ..      DCW    0
        0x08002d00:    e000ed04    ....    DCD    3758157060
    $t
    i.xTaskCheckForTimeOut
    xTaskCheckForTimeOut
        0x08002d04:    e92d41f0    -..A    PUSH     {r4-r8,lr}
        0x08002d08:    4605        .F      MOV      r5,r0
        0x08002d0a:    460c        .F      MOV      r4,r1
        0x08002d0c:    2d00        .-      CMP      r5,#0
        0x08002d0e:    d011        ..      BEQ      0x8002d34 ; xTaskCheckForTimeOut + 48
        0x08002d10:    b1c4        ..      CBZ      r4,0x8002d44 ; xTaskCheckForTimeOut + 64
        0x08002d12:    f7fffb6f    ..o.    BL       vPortEnterCritical ; 0x80023f4
        0x08002d16:    4e19        .N      LDR      r6,[pc,#100] ; [0x8002d7c] = 0x20000024
        0x08002d18:    68f0        .h      LDR      r0,[r6,#0xc]
        0x08002d1a:    686b        kh      LDR      r3,[r5,#4]
        0x08002d1c:    1ac1        ..      SUBS     r1,r0,r3
        0x08002d1e:    6822        "h      LDR      r2,[r4,#0]
        0x08002d20:    1c57        W.      ADDS     r7,r2,#1
        0x08002d22:    d017        ..      BEQ      0x8002d54 ; xTaskCheckForTimeOut + 80
        0x08002d24:    682f        /h      LDR      r7,[r5,#0]
        0x08002d26:    6a36        6j      LDR      r6,[r6,#0x20]
        0x08002d28:    42b7        .B      CMP      r7,r6
        0x08002d2a:    d015        ..      BEQ      0x8002d58 ; xTaskCheckForTimeOut + 84
        0x08002d2c:    4283        .B      CMP      r3,r0
        0x08002d2e:    d813        ..      BHI      0x8002d58 ; xTaskCheckForTimeOut + 84
        0x08002d30:    2401        .$      MOVS     r4,#1
        0x08002d32:    e01d        ..      B        0x8002d70 ; xTaskCheckForTimeOut + 108
        0x08002d34:    2050        P       MOVS     r0,#0x50
        0x08002d36:    f3808811    ....    MSR      BASEPRI,r0
        0x08002d3a:    f3bf8f4f    ..O.    DSB      
        0x08002d3e:    f3bf8f6f    ..o.    ISB      
        0x08002d42:    e7fe        ..      B        0x8002d42 ; xTaskCheckForTimeOut + 62
        0x08002d44:    2050        P       MOVS     r0,#0x50
        0x08002d46:    f3808811    ....    MSR      BASEPRI,r0
        0x08002d4a:    f3bf8f4f    ..O.    DSB      
        0x08002d4e:    f3bf8f6f    ..o.    ISB      
        0x08002d52:    e7fe        ..      B        0x8002d52 ; xTaskCheckForTimeOut + 78
        0x08002d54:    2400        .$      MOVS     r4,#0
        0x08002d56:    e00b        ..      B        0x8002d70 ; xTaskCheckForTimeOut + 108
        0x08002d58:    428a        .B      CMP      r2,r1
        0x08002d5a:    d906        ..      BLS      0x8002d6a ; xTaskCheckForTimeOut + 102
        0x08002d5c:    1a50        P.      SUBS     r0,r2,r1
        0x08002d5e:    6020         `      STR      r0,[r4,#0]
        0x08002d60:    4628        (F      MOV      r0,r5
        0x08002d62:    f7fffc49    ..I.    BL       vTaskInternalSetTimeOutState ; 0x80025f8
        0x08002d66:    2400        .$      MOVS     r4,#0
        0x08002d68:    e002        ..      B        0x8002d70 ; xTaskCheckForTimeOut + 108
        0x08002d6a:    2000        .       MOVS     r0,#0
        0x08002d6c:    6020         `      STR      r0,[r4,#0]
        0x08002d6e:    2401        .$      MOVS     r4,#1
        0x08002d70:    f7fffb60    ..`.    BL       vPortExitCritical ; 0x8002434
        0x08002d74:    4620         F      MOV      r0,r4
        0x08002d76:    e8bd81f0    ....    POP      {r4-r8,pc}
    $d
        0x08002d7a:    0000        ..      DCW    0
        0x08002d7c:    20000024    $..     DCD    536870948
    $t
    i.xTaskCreate
    xTaskCreate
        0x08002d80:    e92d5fff    -.._    PUSH     {r0-r12,lr}
        0x08002d84:    4681        .F      MOV      r9,r0
        0x08002d86:    e9dd780e    ...x    LDRD     r7,r8,[sp,#0x38]
        0x08002d8a:    468a        .F      MOV      r10,r1
        0x08002d8c:    4616        .F      MOV      r6,r2
        0x08002d8e:    469b        .F      MOV      r11,r3
        0x08002d90:    00b0        ..      LSLS     r0,r6,#2
        0x08002d92:    f7fffa53    ..S.    BL       pvPortMalloc ; 0x800223c
        0x08002d96:    4605        .F      MOV      r5,r0
        0x08002d98:    0028        (.      MOVS     r0,r5
        0x08002d9a:    d00a        ..      BEQ      0x8002db2 ; xTaskCreate + 50
        0x08002d9c:    205c        \       MOVS     r0,#0x5c
        0x08002d9e:    f7fffa4d    ..M.    BL       pvPortMalloc ; 0x800223c
        0x08002da2:    4604        .F      MOV      r4,r0
        0x08002da4:    b10c        ..      CBZ      r4,0x8002daa ; xTaskCreate + 42
        0x08002da6:    6325        %c      STR      r5,[r4,#0x30]
        0x08002da8:    e004        ..      B        0x8002db4 ; xTaskCreate + 52
        0x08002daa:    4628        (F      MOV      r0,r5
        0x08002dac:    f7fffb58    ..X.    BL       vPortFree ; 0x8002460
        0x08002db0:    e000        ..      B        0x8002db4 ; xTaskCreate + 52
        0x08002db2:    2400        .$      MOVS     r4,#0
        0x08002db4:    b19c        ..      CBZ      r4,0x8002dde ; xTaskCreate + 94
        0x08002db6:    2000        .       MOVS     r0,#0
        0x08002db8:    f8840059    ..Y.    STRB     r0,[r4,#0x59]
        0x08002dbc:    e9cd4002    ...@    STRD     r4,r0,[sp,#8]
        0x08002dc0:    e9cd7800    ...x    STRD     r7,r8,[sp,#0]
        0x08002dc4:    465b        [F      MOV      r3,r11
        0x08002dc6:    4632        2F      MOV      r2,r6
        0x08002dc8:    4651        QF      MOV      r1,r10
        0x08002dca:    4648        HF      MOV      r0,r9
        0x08002dcc:    f7feffb1    ....    BL       prvInitialiseNewTask ; 0x8001d32
        0x08002dd0:    4620         F      MOV      r0,r4
        0x08002dd2:    f7fefe57    ..W.    BL       prvAddNewTaskToReadyList ; 0x8001a84
        0x08002dd6:    2001        .       MOVS     r0,#1
        0x08002dd8:    b004        ..      ADD      sp,sp,#0x10
        0x08002dda:    e8bd9ff0    ....    POP      {r4-r12,pc}
        0x08002dde:    f04f30ff    O..0    MOV      r0,#0xffffffff
        0x08002de2:    e7f9        ..      B        0x8002dd8 ; xTaskCreate + 88
    i.xTaskCreateStatic
    xTaskCreateStatic
        0x08002de4:    b5f0        ..      PUSH     {r4-r7,lr}
        0x08002de6:    b085        ..      SUB      sp,sp,#0x14
        0x08002de8:    4607        .F      MOV      r7,r0
        0x08002dea:    e9dd600a    ...`    LDRD     r6,r0,[sp,#0x28]
        0x08002dee:    9c0c        ..      LDR      r4,[sp,#0x30]
        0x08002df0:    2800        .(      CMP      r0,#0
        0x08002df2:    d015        ..      BEQ      0x8002e20 ; xTaskCreateStatic + 60
        0x08002df4:    b1e4        ..      CBZ      r4,0x8002e30 ; xTaskCreateStatic + 76
        0x08002df6:    255c        \%      MOVS     r5,#0x5c
        0x08002df8:    9503        ..      STR      r5,[sp,#0xc]
        0x08002dfa:    6320         c      STR      r0,[r4,#0x30]
        0x08002dfc:    2002        .       MOVS     r0,#2
        0x08002dfe:    f8840059    ..Y.    STRB     r0,[r4,#0x59]
        0x08002e02:    2000        .       MOVS     r0,#0
        0x08002e04:    ad04        ..      ADD      r5,sp,#0x10
        0x08002e06:    e9cd4002    ...@    STRD     r4,r0,[sp,#8]
        0x08002e0a:    e9cd6500    ...e    STRD     r6,r5,[sp,#0]
        0x08002e0e:    4638        8F      MOV      r0,r7
        0x08002e10:    f7feff8f    ....    BL       prvInitialiseNewTask ; 0x8001d32
        0x08002e14:    4620         F      MOV      r0,r4
        0x08002e16:    f7fefe35    ..5.    BL       prvAddNewTaskToReadyList ; 0x8001a84
        0x08002e1a:    9804        ..      LDR      r0,[sp,#0x10]
        0x08002e1c:    b005        ..      ADD      sp,sp,#0x14
        0x08002e1e:    bdf0        ..      POP      {r4-r7,pc}
        0x08002e20:    2050        P       MOVS     r0,#0x50
        0x08002e22:    f3808811    ....    MSR      BASEPRI,r0
        0x08002e26:    f3bf8f4f    ..O.    DSB      
        0x08002e2a:    f3bf8f6f    ..o.    ISB      
        0x08002e2e:    e7fe        ..      B        0x8002e2e ; xTaskCreateStatic + 74
        0x08002e30:    2050        P       MOVS     r0,#0x50
        0x08002e32:    f3808811    ....    MSR      BASEPRI,r0
        0x08002e36:    f3bf8f4f    ..O.    DSB      
        0x08002e3a:    f3bf8f6f    ..o.    ISB      
        0x08002e3e:    e7fe        ..      B        0x8002e3e ; xTaskCreateStatic + 90
    i.xTaskGetSchedulerState
    xTaskGetSchedulerState
        0x08002e40:    4805        .H      LDR      r0,[pc,#20] ; [0x8002e58] = 0x20000024
        0x08002e42:    6941        Ai      LDR      r1,[r0,#0x14]
        0x08002e44:    2900        .)      CMP      r1,#0
        0x08002e46:    d003        ..      BEQ      0x8002e50 ; xTaskGetSchedulerState + 16
        0x08002e48:    6b00        .k      LDR      r0,[r0,#0x30]
        0x08002e4a:    b118        ..      CBZ      r0,0x8002e54 ; xTaskGetSchedulerState + 20
        0x08002e4c:    2000        .       MOVS     r0,#0
        0x08002e4e:    4770        pG      BX       lr
        0x08002e50:    2001        .       MOVS     r0,#1
        0x08002e52:    4770        pG      BX       lr
        0x08002e54:    2002        .       MOVS     r0,#2
        0x08002e56:    4770        pG      BX       lr
    $d
        0x08002e58:    20000024    $..     DCD    536870948
    $t
    i.xTaskGetTickCount
    xTaskGetTickCount
        0x08002e5c:    4801        .H      LDR      r0,[pc,#4] ; [0x8002e64] = 0x20000024
        0x08002e5e:    68c0        .h      LDR      r0,[r0,#0xc]
        0x08002e60:    4770        pG      BX       lr
    $d
        0x08002e62:    0000        ..      DCW    0
        0x08002e64:    20000024    $..     DCD    536870948
    $t
    i.xTaskIncrementTick
    xTaskIncrementTick
        0x08002e68:    e92d41f0    -..A    PUSH     {r4-r8,lr}
        0x08002e6c:    2600        .&      MOVS     r6,#0
        0x08002e6e:    4f2f        /O      LDR      r7,[pc,#188] ; [0x8002f2c] = 0x20000024
        0x08002e70:    6b38        8k      LDR      r0,[r7,#0x30]
        0x08002e72:    2800        .(      CMP      r0,#0
        0x08002e74:    d005        ..      BEQ      0x8002e82 ; xTaskIncrementTick + 26
        0x08002e76:    69b8        .i      LDR      r0,[r7,#0x18]
        0x08002e78:    1c40        @.      ADDS     r0,r0,#1
        0x08002e7a:    61b8        .a      STR      r0,[r7,#0x18]
        0x08002e7c:    4630        0F      MOV      r0,r6
        0x08002e7e:    e8bd81f0    ....    POP      {r4-r8,pc}
        0x08002e82:    68fd        .h      LDR      r5,[r7,#0xc]
        0x08002e84:    1c6d        m.      ADDS     r5,r5,#1
        0x08002e86:    60fd        .`      STR      r5,[r7,#0xc]
        0x08002e88:    b99d        ..      CBNZ     r5,0x8002eb2 ; xTaskIncrementTick + 74
        0x08002e8a:    6b78        xk      LDR      r0,[r7,#0x34]
        0x08002e8c:    6800        .h      LDR      r0,[r0,#0]
        0x08002e8e:    b138        8.      CBZ      r0,0x8002ea0 ; xTaskIncrementTick + 56
        0x08002e90:    2050        P       MOVS     r0,#0x50
        0x08002e92:    f3808811    ....    MSR      BASEPRI,r0
        0x08002e96:    f3bf8f4f    ..O.    DSB      
        0x08002e9a:    f3bf8f6f    ..o.    ISB      
        0x08002e9e:    e7fe        ..      B        0x8002e9e ; xTaskIncrementTick + 54
        0x08002ea0:    6b78        xk      LDR      r0,[r7,#0x34]
        0x08002ea2:    6bb9        .k      LDR      r1,[r7,#0x38]
        0x08002ea4:    6379        yc      STR      r1,[r7,#0x34]
        0x08002ea6:    63b8        .c      STR      r0,[r7,#0x38]
        0x08002ea8:    6a38        8j      LDR      r0,[r7,#0x20]
        0x08002eaa:    1c40        @.      ADDS     r0,r0,#1
        0x08002eac:    6238        8b      STR      r0,[r7,#0x20]
        0x08002eae:    f7fff90f    ....    BL       prvResetNextTaskUnblockTime ; 0x80020d0
        0x08002eb2:    6ab8        .j      LDR      r0,[r7,#0x28]
        0x08002eb4:    f8df8078    ..x.    LDR      r8,[pc,#120] ; [0x8002f30] = 0x2000019c
        0x08002eb8:    4285        .B      CMP      r5,r0
        0x08002eba:    d30d        ..      BCC      0x8002ed8 ; xTaskIncrementTick + 112
        0x08002ebc:    6b78        xk      LDR      r0,[r7,#0x34]
        0x08002ebe:    6800        .h      LDR      r0,[r0,#0]
        0x08002ec0:    b138        8.      CBZ      r0,0x8002ed2 ; xTaskIncrementTick + 106
        0x08002ec2:    6b78        xk      LDR      r0,[r7,#0x34]
        0x08002ec4:    68c0        .h      LDR      r0,[r0,#0xc]
        0x08002ec6:    68c4        .h      LDR      r4,[r0,#0xc]
        0x08002ec8:    6860        `h      LDR      r0,[r4,#4]
        0x08002eca:    4285        .B      CMP      r5,r0
        0x08002ecc:    d212        ..      BCS      0x8002ef4 ; xTaskIncrementTick + 140
        0x08002ece:    62b8        .b      STR      r0,[r7,#0x28]
        0x08002ed0:    e002        ..      B        0x8002ed8 ; xTaskIncrementTick + 112
        0x08002ed2:    f04f30ff    O..0    MOV      r0,#0xffffffff
        0x08002ed6:    62b8        .b      STR      r0,[r7,#0x28]
        0x08002ed8:    6838        8h      LDR      r0,[r7,#0]
        0x08002eda:    6ac0        .j      LDR      r0,[r0,#0x2c]
        0x08002edc:    eb000080    ....    ADD      r0,r0,r0,LSL #2
        0x08002ee0:    f8580020    X. .    LDR      r0,[r8,r0,LSL #2]
        0x08002ee4:    2801        .(      CMP      r0,#1
        0x08002ee6:    d900        ..      BLS      0x8002eea ; xTaskIncrementTick + 130
        0x08002ee8:    2601        .&      MOVS     r6,#1
        0x08002eea:    69f8        .i      LDR      r0,[r7,#0x1c]
        0x08002eec:    2800        .(      CMP      r0,#0
        0x08002eee:    d0c5        ..      BEQ      0x8002e7c ; xTaskIncrementTick + 20
        0x08002ef0:    2601        .&      MOVS     r6,#1
        0x08002ef2:    e7c3        ..      B        0x8002e7c ; xTaskIncrementTick + 20
        0x08002ef4:    1d20         .      ADDS     r0,r4,#4
        0x08002ef6:    f7fffa21    ..!.    BL       uxListRemove ; 0x800233c
        0x08002efa:    6aa0        .j      LDR      r0,[r4,#0x28]
        0x08002efc:    b118        ..      CBZ      r0,0x8002f06 ; xTaskIncrementTick + 158
        0x08002efe:    f1040018    ....    ADD      r0,r4,#0x18
        0x08002f02:    f7fffa1b    ....    BL       uxListRemove ; 0x800233c
        0x08002f06:    6ae0        .j      LDR      r0,[r4,#0x2c]
        0x08002f08:    6939        9i      LDR      r1,[r7,#0x10]
        0x08002f0a:    4288        .B      CMP      r0,r1
        0x08002f0c:    d900        ..      BLS      0x8002f10 ; xTaskIncrementTick + 168
        0x08002f0e:    6138        8a      STR      r0,[r7,#0x10]
        0x08002f10:    eb000080    ....    ADD      r0,r0,r0,LSL #2
        0x08002f14:    eb080080    ....    ADD      r0,r8,r0,LSL #2
        0x08002f18:    1d21        !.      ADDS     r1,r4,#4
        0x08002f1a:    f7fffa5f    .._.    BL       vListInsertEnd ; 0x80023dc
        0x08002f1e:    6ae0        .j      LDR      r0,[r4,#0x2c]
        0x08002f20:    6839        9h      LDR      r1,[r7,#0]
        0x08002f22:    6ac9        .j      LDR      r1,[r1,#0x2c]
        0x08002f24:    4288        .B      CMP      r0,r1
        0x08002f26:    d3c9        ..      BCC      0x8002ebc ; xTaskIncrementTick + 84
        0x08002f28:    2601        .&      MOVS     r6,#1
        0x08002f2a:    e7c7        ..      B        0x8002ebc ; xTaskIncrementTick + 84
    $d
        0x08002f2c:    20000024    $..     DCD    536870948
        0x08002f30:    2000019c    ...     DCD    536871324
    $t
    i.xTaskPriorityDisinherit
    xTaskPriorityDisinherit
        0x08002f34:    b570        p.      PUSH     {r4-r6,lr}
        0x08002f36:    4604        .F      MOV      r4,r0
        0x08002f38:    2000        .       MOVS     r0,#0
        0x08002f3a:    2c00        .,      CMP      r4,#0
        0x08002f3c:    d02b        +.      BEQ      0x8002f96 ; xTaskPriorityDisinherit + 98
        0x08002f3e:    4d1a        .M      LDR      r5,[pc,#104] ; [0x8002fa8] = 0x20000024
        0x08002f40:    6829        )h      LDR      r1,[r5,#0]
        0x08002f42:    428c        .B      CMP      r4,r1
        0x08002f44:    d007        ..      BEQ      0x8002f56 ; xTaskPriorityDisinherit + 34
        0x08002f46:    2050        P       MOVS     r0,#0x50
        0x08002f48:    f3808811    ....    MSR      BASEPRI,r0
        0x08002f4c:    f3bf8f4f    ..O.    DSB      
        0x08002f50:    f3bf8f6f    ..o.    ISB      
        0x08002f54:    e7fe        ..      B        0x8002f54 ; xTaskPriorityDisinherit + 32
        0x08002f56:    6d21        !m      LDR      r1,[r4,#0x50]
        0x08002f58:    b1f1        ..      CBZ      r1,0x8002f98 ; xTaskPriorityDisinherit + 100
        0x08002f5a:    1e49        I.      SUBS     r1,r1,#1
        0x08002f5c:    6521        !e      STR      r1,[r4,#0x50]
        0x08002f5e:    6ce3        .l      LDR      r3,[r4,#0x4c]
        0x08002f60:    6ae2        .j      LDR      r2,[r4,#0x2c]
        0x08002f62:    429a        .B      CMP      r2,r3
        0x08002f64:    d017        ..      BEQ      0x8002f96 ; xTaskPriorityDisinherit + 98
        0x08002f66:    2900        .)      CMP      r1,#0
        0x08002f68:    d115        ..      BNE      0x8002f96 ; xTaskPriorityDisinherit + 98
        0x08002f6a:    1d20         .      ADDS     r0,r4,#4
        0x08002f6c:    f7fff9e6    ....    BL       uxListRemove ; 0x800233c
        0x08002f70:    6ce0        .l      LDR      r0,[r4,#0x4c]
        0x08002f72:    62e0        .b      STR      r0,[r4,#0x2c]
        0x08002f74:    f1c00038    ..8.    RSB      r0,r0,#0x38
        0x08002f78:    61a0        .a      STR      r0,[r4,#0x18]
        0x08002f7a:    6ae0        .j      LDR      r0,[r4,#0x2c]
        0x08002f7c:    6929        )i      LDR      r1,[r5,#0x10]
        0x08002f7e:    4288        .B      CMP      r0,r1
        0x08002f80:    d900        ..      BLS      0x8002f84 ; xTaskPriorityDisinherit + 80
        0x08002f82:    6128        (a      STR      r0,[r5,#0x10]
        0x08002f84:    4909        .I      LDR      r1,[pc,#36] ; [0x8002fac] = 0x2000019c
        0x08002f86:    eb000080    ....    ADD      r0,r0,r0,LSL #2
        0x08002f8a:    eb010080    ....    ADD      r0,r1,r0,LSL #2
        0x08002f8e:    1d21        !.      ADDS     r1,r4,#4
        0x08002f90:    f7fffa24    ..$.    BL       vListInsertEnd ; 0x80023dc
        0x08002f94:    2001        .       MOVS     r0,#1
        0x08002f96:    bd70        p.      POP      {r4-r6,pc}
        0x08002f98:    2050        P       MOVS     r0,#0x50
        0x08002f9a:    f3808811    ....    MSR      BASEPRI,r0
        0x08002f9e:    f3bf8f4f    ..O.    DSB      
        0x08002fa2:    f3bf8f6f    ..o.    ISB      
        0x08002fa6:    e7fe        ..      B        0x8002fa6 ; xTaskPriorityDisinherit + 114
    $d
        0x08002fa8:    20000024    $..     DCD    536870948
        0x08002fac:    2000019c    ...     DCD    536871324
    $t
    i.xTaskRemoveFromEventList
    xTaskRemoveFromEventList
        0x08002fb0:    b570        p.      PUSH     {r4-r6,lr}
        0x08002fb2:    68c0        .h      LDR      r0,[r0,#0xc]
        0x08002fb4:    68c4        .h      LDR      r4,[r0,#0xc]
        0x08002fb6:    2c00        .,      CMP      r4,#0
        0x08002fb8:    d014        ..      BEQ      0x8002fe4 ; xTaskRemoveFromEventList + 52
        0x08002fba:    f1040018    ....    ADD      r0,r4,#0x18
        0x08002fbe:    4606        .F      MOV      r6,r0
        0x08002fc0:    f7fff9bc    ....    BL       uxListRemove ; 0x800233c
        0x08002fc4:    4d15        .M      LDR      r5,[pc,#84] ; [0x800301c] = 0x20000024
        0x08002fc6:    6b2a        *k      LDR      r2,[r5,#0x30]
        0x08002fc8:    b1a2        ..      CBZ      r2,0x8002ff4 ; xTaskRemoveFromEventList + 68
        0x08002fca:    4631        1F      MOV      r1,r6
        0x08002fcc:    4814        .H      LDR      r0,[pc,#80] ; [0x8003020] = 0x20000624
        0x08002fce:    f7fffa05    ....    BL       vListInsertEnd ; 0x80023dc
        0x08002fd2:    6ae0        .j      LDR      r0,[r4,#0x2c]
        0x08002fd4:    6829        )h      LDR      r1,[r5,#0]
        0x08002fd6:    6ac9        .j      LDR      r1,[r1,#0x2c]
        0x08002fd8:    4288        .B      CMP      r0,r1
        0x08002fda:    d91c        ..      BLS      0x8003016 ; xTaskRemoveFromEventList + 102
        0x08002fdc:    2001        .       MOVS     r0,#1
        0x08002fde:    2101        .!      MOVS     r1,#1
        0x08002fe0:    61e9        .a      STR      r1,[r5,#0x1c]
        0x08002fe2:    bd70        p.      POP      {r4-r6,pc}
        0x08002fe4:    2050        P       MOVS     r0,#0x50
        0x08002fe6:    f3808811    ....    MSR      BASEPRI,r0
        0x08002fea:    f3bf8f4f    ..O.    DSB      
        0x08002fee:    f3bf8f6f    ..o.    ISB      
        0x08002ff2:    e7fe        ..      B        0x8002ff2 ; xTaskRemoveFromEventList + 66
        0x08002ff4:    1d20         .      ADDS     r0,r4,#4
        0x08002ff6:    f7fff9a1    ....    BL       uxListRemove ; 0x800233c
        0x08002ffa:    6ae0        .j      LDR      r0,[r4,#0x2c]
        0x08002ffc:    6929        )i      LDR      r1,[r5,#0x10]
        0x08002ffe:    4288        .B      CMP      r0,r1
        0x08003000:    d900        ..      BLS      0x8003004 ; xTaskRemoveFromEventList + 84
        0x08003002:    6128        (a      STR      r0,[r5,#0x10]
        0x08003004:    4907        .I      LDR      r1,[pc,#28] ; [0x8003024] = 0x2000019c
        0x08003006:    eb000080    ....    ADD      r0,r0,r0,LSL #2
        0x0800300a:    eb010080    ....    ADD      r0,r1,r0,LSL #2
        0x0800300e:    1d21        !.      ADDS     r1,r4,#4
        0x08003010:    f7fff9e4    ....    BL       vListInsertEnd ; 0x80023dc
        0x08003014:    e7dd        ..      B        0x8002fd2 ; xTaskRemoveFromEventList + 34
        0x08003016:    2000        .       MOVS     r0,#0
        0x08003018:    bd70        p.      POP      {r4-r6,pc}
    $d
        0x0800301a:    0000        ..      DCW    0
        0x0800301c:    20000024    $..     DCD    536870948
        0x08003020:    20000624    $..     DCD    536872484
        0x08003024:    2000019c    ...     DCD    536871324
    $t
    i.xTaskResumeAll
    xTaskResumeAll
        0x08003028:    e92d41f0    -..A    PUSH     {r4-r8,lr}
        0x0800302c:    2400        .$      MOVS     r4,#0
        0x0800302e:    2700        .'      MOVS     r7,#0
        0x08003030:    4d2b        +M      LDR      r5,[pc,#172] ; [0x80030e0] = 0x20000024
        0x08003032:    6b28        (k      LDR      r0,[r5,#0x30]
        0x08003034:    2800        .(      CMP      r0,#0
        0x08003036:    d007        ..      BEQ      0x8003048 ; xTaskResumeAll + 32
        0x08003038:    f7fff9dc    ....    BL       vPortEnterCritical ; 0x80023f4
        0x0800303c:    6b28        (k      LDR      r0,[r5,#0x30]
        0x0800303e:    1e40        @.      SUBS     r0,r0,#1
        0x08003040:    6328        (c      STR      r0,[r5,#0x30]
        0x08003042:    6b28        (k      LDR      r0,[r5,#0x30]
        0x08003044:    b140        @.      CBZ      r0,0x8003058 ; xTaskResumeAll + 48
        0x08003046:    e046        F.      B        0x80030d6 ; xTaskResumeAll + 174
        0x08003048:    2050        P       MOVS     r0,#0x50
        0x0800304a:    f3808811    ....    MSR      BASEPRI,r0
        0x0800304e:    f3bf8f4f    ..O.    DSB      
        0x08003052:    f3bf8f6f    ..o.    ISB      
        0x08003056:    e7fe        ..      B        0x8003056 ; xTaskResumeAll + 46
        0x08003058:    68a8        .h      LDR      r0,[r5,#8]
        0x0800305a:    b3e0        ..      CBZ      r0,0x80030d6 ; xTaskResumeAll + 174
        0x0800305c:    f8df8084    ....    LDR      r8,[pc,#132] ; [0x80030e4] = 0x20000624
        0x08003060:    2601        .&      MOVS     r6,#1
        0x08003062:    e01c        ..      B        0x800309e ; xTaskResumeAll + 118
        0x08003064:    f8d8000c    ....    LDR      r0,[r8,#0xc]
        0x08003068:    68c4        .h      LDR      r4,[r0,#0xc]
        0x0800306a:    f1040018    ....    ADD      r0,r4,#0x18
        0x0800306e:    f7fff965    ..e.    BL       uxListRemove ; 0x800233c
        0x08003072:    1d20         .      ADDS     r0,r4,#4
        0x08003074:    f7fff962    ..b.    BL       uxListRemove ; 0x800233c
        0x08003078:    6ae0        .j      LDR      r0,[r4,#0x2c]
        0x0800307a:    6929        )i      LDR      r1,[r5,#0x10]
        0x0800307c:    4288        .B      CMP      r0,r1
        0x0800307e:    d900        ..      BLS      0x8003082 ; xTaskResumeAll + 90
        0x08003080:    6128        (a      STR      r0,[r5,#0x10]
        0x08003082:    4919        .I      LDR      r1,[pc,#100] ; [0x80030e8] = 0x2000019c
        0x08003084:    eb000080    ....    ADD      r0,r0,r0,LSL #2
        0x08003088:    eb010080    ....    ADD      r0,r1,r0,LSL #2
        0x0800308c:    1d21        !.      ADDS     r1,r4,#4
        0x0800308e:    f7fff9a5    ....    BL       vListInsertEnd ; 0x80023dc
        0x08003092:    6ae0        .j      LDR      r0,[r4,#0x2c]
        0x08003094:    6829        )h      LDR      r1,[r5,#0]
        0x08003096:    6ac9        .j      LDR      r1,[r1,#0x2c]
        0x08003098:    4288        .B      CMP      r0,r1
        0x0800309a:    d300        ..      BCC      0x800309e ; xTaskResumeAll + 118
        0x0800309c:    61ee        .a      STR      r6,[r5,#0x1c]
        0x0800309e:    f8d80000    ....    LDR      r0,[r8,#0]
        0x080030a2:    2800        .(      CMP      r0,#0
        0x080030a4:    d1de        ..      BNE      0x8003064 ; xTaskResumeAll + 60
        0x080030a6:    b10c        ..      CBZ      r4,0x80030ac ; xTaskResumeAll + 132
        0x080030a8:    f7fff812    ....    BL       prvResetNextTaskUnblockTime ; 0x80020d0
        0x080030ac:    69ac        .i      LDR      r4,[r5,#0x18]
        0x080030ae:    b144        D.      CBZ      r4,0x80030c2 ; xTaskResumeAll + 154
        0x080030b0:    f7fffeda    ....    BL       xTaskIncrementTick ; 0x8002e68
        0x080030b4:    b100        ..      CBZ      r0,0x80030b8 ; xTaskResumeAll + 144
        0x080030b6:    61ee        .a      STR      r6,[r5,#0x1c]
        0x080030b8:    1e64        d.      SUBS     r4,r4,#1
        0x080030ba:    2c00        .,      CMP      r4,#0
        0x080030bc:    d1f8        ..      BNE      0x80030b0 ; xTaskResumeAll + 136
        0x080030be:    2000        .       MOVS     r0,#0
        0x080030c0:    61a8        .a      STR      r0,[r5,#0x18]
        0x080030c2:    69e8        .i      LDR      r0,[r5,#0x1c]
        0x080030c4:    b138        8.      CBZ      r0,0x80030d6 ; xTaskResumeAll + 174
        0x080030c6:    2701        .'      MOVS     r7,#1
        0x080030c8:    4908        .I      LDR      r1,[pc,#32] ; [0x80030ec] = 0xe000ed04
        0x080030ca:    0738        8.      LSLS     r0,r7,#28
        0x080030cc:    6008        .`      STR      r0,[r1,#0]
        0x080030ce:    f3bf8f4f    ..O.    DSB      
        0x080030d2:    f3bf8f6f    ..o.    ISB      
        0x080030d6:    f7fff9ad    ....    BL       vPortExitCritical ; 0x8002434
        0x080030da:    4638        8F      MOV      r0,r7
        0x080030dc:    e8bd81f0    ....    POP      {r4-r8,pc}
    $d
        0x080030e0:    20000024    $..     DCD    536870948
        0x080030e4:    20000624    $..     DCD    536872484
        0x080030e8:    2000019c    ...     DCD    536871324
        0x080030ec:    e000ed04    ....    DCD    3758157060
    $t
    i.xTimerCreateTimerTask
    xTimerCreateTimerTask
        0x080030f0:    b530        0.      PUSH     {r4,r5,lr}
        0x080030f2:    b087        ..      SUB      sp,sp,#0x1c
        0x080030f4:    2400        .$      MOVS     r4,#0
        0x080030f6:    f7fefd09    ....    BL       prvCheckForValidListAndQueue ; 0x8001b0c
        0x080030fa:    4d13        .M      LDR      r5,[pc,#76] ; [0x8003148] = 0x20000060
        0x080030fc:    6828        (h      LDR      r0,[r5,#0]
        0x080030fe:    b1b0        ..      CBZ      r0,0x800312e ; xTimerCreateTimerTask + 62
        0x08003100:    2000        .       MOVS     r0,#0
        0x08003102:    9006        ..      STR      r0,[sp,#0x18]
        0x08003104:    9005        ..      STR      r0,[sp,#0x14]
        0x08003106:    aa04        ..      ADD      r2,sp,#0x10
        0x08003108:    a905        ..      ADD      r1,sp,#0x14
        0x0800310a:    a806        ..      ADD      r0,sp,#0x18
        0x0800310c:    f7fff934    ..4.    BL       vApplicationGetTimerTaskMemory ; 0x8002378
        0x08003110:    e9dd1005    ....    LDRD     r1,r0,[sp,#0x14]
        0x08003114:    2202        ."      MOVS     r2,#2
        0x08003116:    e9cd2100    ...!    STRD     r2,r1,[sp,#0]
        0x0800311a:    9002        ..      STR      r0,[sp,#8]
        0x0800311c:    2300        .#      MOVS     r3,#0
        0x0800311e:    a10b        ..      ADR      r1,{pc}+0x2e ; 0x800314c
        0x08003120:    480c        .H      LDR      r0,[pc,#48] ; [0x8003154] = 0x80021bd
        0x08003122:    9a04        ..      LDR      r2,[sp,#0x10]
        0x08003124:    f7fffe5e    ..^.    BL       xTaskCreateStatic ; 0x8002de4
        0x08003128:    6068        h`      STR      r0,[r5,#4]
        0x0800312a:    b100        ..      CBZ      r0,0x800312e ; xTimerCreateTimerTask + 62
        0x0800312c:    2401        .$      MOVS     r4,#1
        0x0800312e:    b114        ..      CBZ      r4,0x8003136 ; xTimerCreateTimerTask + 70
        0x08003130:    b007        ..      ADD      sp,sp,#0x1c
        0x08003132:    4620         F      MOV      r0,r4
        0x08003134:    bd30        0.      POP      {r4,r5,pc}
        0x08003136:    2050        P       MOVS     r0,#0x50
        0x08003138:    f3808811    ....    MSR      BASEPRI,r0
        0x0800313c:    f3bf8f4f    ..O.    DSB      
        0x08003140:    f3bf8f6f    ..o.    ISB      
        0x08003144:    e7fe        ..      B        0x8003144 ; xTimerCreateTimerTask + 84
    $d
        0x08003146:    0000        ..      DCW    0
        0x08003148:    20000060    `..     DCD    536871008
        0x0800314c:    20726d54    Tmr     DCD    544370004
        0x08003150:    00637653    Svc.    DCD    6518355
        0x08003154:    080021bd    .!..    DCD    134226365
    $t
    i.xTimerGenericCommand
    xTimerGenericCommand
        0x08003158:    e92d41ff    -..A    PUSH     {r0-r8,lr}
        0x0800315c:    4606        .F      MOV      r6,r0
        0x0800315e:    9f0a        ..      LDR      r7,[sp,#0x28]
        0x08003160:    469c        .F      MOV      r12,r3
        0x08003162:    2000        .       MOVS     r0,#0
        0x08003164:    2e00        ..      CMP      r6,#0
        0x08003166:    d015        ..      BEQ      0x8003194 ; xTimerGenericCommand + 60
        0x08003168:    4d15        .M      LDR      r5,[pc,#84] ; [0x80031c0] = 0x20000060
        0x0800316a:    682c        ,h      LDR      r4,[r5,#0]
        0x0800316c:    2c00        .,      CMP      r4,#0
        0x0800316e:    d00e        ..      BEQ      0x800318e ; xTimerGenericCommand + 54
        0x08003170:    9100        ..      STR      r1,[sp,#0]
        0x08003172:    9201        ..      STR      r2,[sp,#4]
        0x08003174:    9602        ..      STR      r6,[sp,#8]
        0x08003176:    2906        .)      CMP      r1,#6
        0x08003178:    da1b        ..      BGE      0x80031b2 ; xTimerGenericCommand + 90
        0x0800317a:    f7fffe61    ..a.    BL       xTaskGetSchedulerState ; 0x8002e40
        0x0800317e:    2802        .(      CMP      r0,#2
        0x08003180:    d010        ..      BEQ      0x80031a4 ; xTimerGenericCommand + 76
        0x08003182:    2300        .#      MOVS     r3,#0
        0x08003184:    461a        .F      MOV      r2,r3
        0x08003186:    4669        iF      MOV      r1,sp
        0x08003188:    6828        (h      LDR      r0,[r5,#0]
        0x0800318a:    f7fffc0b    ....    BL       xQueueGenericSend ; 0x80029a4
        0x0800318e:    b004        ..      ADD      sp,sp,#0x10
        0x08003190:    e8bd81f0    ....    POP      {r4-r8,pc}
        0x08003194:    2050        P       MOVS     r0,#0x50
        0x08003196:    f3808811    ....    MSR      BASEPRI,r0
        0x0800319a:    f3bf8f4f    ..O.    DSB      
        0x0800319e:    f3bf8f6f    ..o.    ISB      
        0x080031a2:    e7fe        ..      B        0x80031a2 ; xTimerGenericCommand + 74
        0x080031a4:    2300        .#      MOVS     r3,#0
        0x080031a6:    463a        :F      MOV      r2,r7
        0x080031a8:    4669        iF      MOV      r1,sp
        0x080031aa:    6828        (h      LDR      r0,[r5,#0]
        0x080031ac:    f7fffbfa    ....    BL       xQueueGenericSend ; 0x80029a4
        0x080031b0:    e7ed        ..      B        0x800318e ; xTimerGenericCommand + 54
        0x080031b2:    2300        .#      MOVS     r3,#0
        0x080031b4:    4662        bF      MOV      r2,r12
        0x080031b6:    4669        iF      MOV      r1,sp
        0x080031b8:    4620         F      MOV      r0,r4
        0x080031ba:    f7fffca5    ....    BL       xQueueGenericSendFromISR ; 0x8002b08
        0x080031be:    e7e6        ..      B        0x800318e ; xTimerGenericCommand + 54
    $d
        0x080031c0:    20000060    `..     DCD    536871008
    $d.realdata
    .constdata
    defaultTask_attributes
        0x080031c4:    08003200    .2..    DCD    134230528
        0x080031c8:    00000000    ....    DCD    0
        0x080031cc:    00000000    ....    DCD    0
        0x080031d0:    00000000    ....    DCD    0
        0x080031d4:    00000000    ....    DCD    0
        0x080031d8:    00000200    ....    DCD    512
        0x080031dc:    00000018    ....    DCD    24
        0x080031e0:    00000000    ....    DCD    0
        0x080031e4:    00000000    ....    DCD    0
    .constdata
    AHBPrescTable
        0x080031e8:    00000000    ....    DCD    0
        0x080031ec:    00000000    ....    DCD    0
        0x080031f0:    04030201    ....    DCD    67305985
        0x080031f4:    09080706    ....    DCD    151521030
    .constdata
    APBPrescTable
        0x080031f8:    00000000    ....    DCD    0
        0x080031fc:    04030201    ....    DCD    67305985
    .conststring
        0x08003200:    61666564    defa    DCD    1634100580
        0x08003204:    54746c75    ultT    DCD    1416916085
        0x08003208:    006b7361    ask.    DCD    7041889
    Region$$Table$$Base
        0x0800320c:    0800322c    ,2..    DCD    134230572
        0x08003210:    20000000    ...     DCD    536870912
        0x08003214:    000000a8    ....    DCD    168
        0x08003218:    080014bc    ....    DCD    134223036
        0x0800321c:    080032d4    .2..    DCD    134230740
        0x08003220:    200000a8    ...     DCD    536871080
        0x08003224:    00004d88    .M..    DCD    19848
        0x08003228:    080014cc    ....    DCD    134223052
    Region$$Table$$Limit

** Section #2 'RW_IRAM1' (SHT_PROGBITS) [SHF_ALLOC + SHF_WRITE]
    Size   : 168 bytes (alignment 4)
    Address: 0x20000000


** Section #3 'RW_IRAM1' (SHT_NOBITS) [SHF_ALLOC + SHF_WRITE]
    Size   : 19848 bytes (alignment 8)
    Address: 0x200000a8


** Section #4 '.debug_abbrev' (SHT_PROGBITS)
    Size   : 1476 bytes


** Section #5 '.debug_frame' (SHT_PROGBITS)
    Size   : 5052 bytes


** Section #6 '.debug_info' (SHT_PROGBITS)
    Size   : 106464 bytes


** Section #7 '.debug_line' (SHT_PROGBITS)
    Size   : 36780 bytes


** Section #8 '.debug_loc' (SHT_PROGBITS)
    Size   : 12904 bytes


** Section #9 '.debug_macinfo' (SHT_PROGBITS)
    Size   : 523084 bytes


** Section #10 '.debug_pubnames' (SHT_PROGBITS)
    Size   : 4642 bytes


** Section #11 '.symtab' (SHT_SYMTAB)
    Size   : 13104 bytes (alignment 4)
    String table #12 '.strtab'
    Last local symbol no. 559


** Section #12 '.strtab' (SHT_STRTAB)
    Size   : 12932 bytes


** Section #13 '.note' (SHT_NOTE)
    Size   : 28 bytes (alignment 4)


** Section #14 '.comment' (SHT_PROGBITS)
    Size   : 52676 bytes


** Section #15 '.shstrtab' (SHT_STRTAB)
    Size   : 156 bytes


