
========================================================================

** ELF Header Information

    File Name: freertos_helloworld\freertos_helloworld.axf

    Machine class: ELFCLASS32 (32-bit)
    Data encoding: ELFDATA2LSB (Little endian)
    Header version: EV_CURRENT (Current version)
    Operating System ABI: none
    ABI Version: 0
    File Type: ET_EXEC (Executable) (2)
    Machine: EM_ARM (ARM)

    Image Entry point: 0x08000199
    Flags: EF_ARM_HASENTRY (0x05000002)

    ARM ELF revision: 5 (ABI version 2)

    Conforms to Base float procedure-call standard

    Built with
    Component: ARM Compiler 5.06 update 7 (build 960) Tool: armasm [4d35fa]
    Component: ARM Compiler 5.06 update 7 (build 960) Tool: armlink [4d3601]

    Header size: 52 bytes (0x34)
    Program header entry size: 32 bytes (0x20)
    Section header entry size: 40 bytes (0x28)

    Program header entries: 1
    Section header entries: 16

    Program header offset: 606224 (0x00094010)
    Section header offset: 606256 (0x00094030)

    Section header string table index: 15

========================================================================

** Program header #0 (PT_LOAD) [PF_X + PF_W + PF_R + PF_ARM_ENTRY]
    Size : 9824 bytes (7436 bytes in file)
    Virtual address: 0x08000000 (Alignment 8)


========================================================================

** Section #1 'ER_IROM1' (SHT_PROGBITS) [SHF_ALLOC + SHF_EXECINSTR]
    Size   : 7352 bytes (alignment 4)
    Address: 0x08000000

    $d.realdata
    RESET
    __Vectors
        0x08000000:    200009a8    ...     DCD    536873384
        0x08000004:    08000271    q...    DCD    134218353
        0x08000008:    08000e15    ....    DCD    134221333
        0x0800000c:    08000e0d    ....    DCD    134221325
        0x08000010:    08000e11    ....    DCD    134221329
        0x08000014:    080007d3    ....    DCD    134219731
        0x08000018:    08000f8b    ....    DCD    134221707
        0x0800001c:    00000000    ....    DCD    0
        0x08000020:    00000000    ....    DCD    0
        0x08000024:    00000000    ....    DCD    0
        0x08000028:    00000000    ....    DCD    0
        0x0800002c:    080001b1    ....    DCD    134218161
        0x08000030:    080007d7    ....    DCD    134219735
        0x08000034:    00000000    ....    DCD    0
        0x08000038:    0800020d    ....    DCD    134218253
        0x0800003c:    08000e19    ....    DCD    134221337
        0x08000040:    0800028b    ....    DCD    134218379
        0x08000044:    0800028b    ....    DCD    134218379
        0x08000048:    0800028b    ....    DCD    134218379
        0x0800004c:    0800028b    ....    DCD    134218379
        0x08000050:    0800028b    ....    DCD    134218379
        0x08000054:    0800028b    ....    DCD    134218379
        0x08000058:    0800028b    ....    DCD    134218379
        0x0800005c:    0800028b    ....    DCD    134218379
        0x08000060:    0800028b    ....    DCD    134218379
        0x08000064:    0800028b    ....    DCD    134218379
        0x08000068:    0800028b    ....    DCD    134218379
        0x0800006c:    0800028b    ....    DCD    134218379
        0x08000070:    0800028b    ....    DCD    134218379
        0x08000074:    0800028b    ....    DCD    134218379
        0x08000078:    0800028b    ....    DCD    134218379
        0x0800007c:    0800028b    ....    DCD    134218379
        0x08000080:    0800028b    ....    DCD    134218379
        0x08000084:    0800028b    ....    DCD    134218379
        0x08000088:    0800028b    ....    DCD    134218379
        0x0800008c:    00000000    ....    DCD    0
        0x08000090:    00000000    ....    DCD    0
        0x08000094:    00000000    ....    DCD    0
        0x08000098:    00000000    ....    DCD    0
        0x0800009c:    0800028b    ....    DCD    134218379
        0x080000a0:    0800028b    ....    DCD    134218379
        0x080000a4:    08000e45    E...    DCD    134221381
        0x080000a8:    0800028b    ....    DCD    134218379
        0x080000ac:    0800028b    ....    DCD    134218379
        0x080000b0:    0800028b    ....    DCD    134218379
        0x080000b4:    0800028b    ....    DCD    134218379
        0x080000b8:    0800028b    ....    DCD    134218379
        0x080000bc:    0800028b    ....    DCD    134218379
        0x080000c0:    0800028b    ....    DCD    134218379
        0x080000c4:    0800028b    ....    DCD    134218379
        0x080000c8:    0800028b    ....    DCD    134218379
        0x080000cc:    0800028b    ....    DCD    134218379
        0x080000d0:    0800028b    ....    DCD    134218379
        0x080000d4:    0800028b    ....    DCD    134218379
        0x080000d8:    0800028b    ....    DCD    134218379
        0x080000dc:    00000000    ....    DCD    0
        0x080000e0:    0800028b    ....    DCD    134218379
        0x080000e4:    0800028b    ....    DCD    134218379
        0x080000e8:    0800028b    ....    DCD    134218379
        0x080000ec:    00000000    ....    DCD    0
        0x080000f0:    00000000    ....    DCD    0
        0x080000f4:    00000000    ....    DCD    0
        0x080000f8:    00000000    ....    DCD    0
        0x080000fc:    0800028b    ....    DCD    134218379
        0x08000100:    00000000    ....    DCD    0
        0x08000104:    0800028b    ....    DCD    134218379
        0x08000108:    0800028b    ....    DCD    134218379
        0x0800010c:    0800028b    ....    DCD    134218379
        0x08000110:    00000000    ....    DCD    0
        0x08000114:    00000000    ....    DCD    0
        0x08000118:    00000000    ....    DCD    0
        0x0800011c:    00000000    ....    DCD    0
        0x08000120:    0800028b    ....    DCD    134218379
        0x08000124:    0800028b    ....    DCD    134218379
        0x08000128:    0800028b    ....    DCD    134218379
        0x0800012c:    0800028b    ....    DCD    134218379
        0x08000130:    0800028b    ....    DCD    134218379
        0x08000134:    00000000    ....    DCD    0
        0x08000138:    00000000    ....    DCD    0
        0x0800013c:    00000000    ....    DCD    0
        0x08000140:    00000000    ....    DCD    0
        0x08000144:    00000000    ....    DCD    0
        0x08000148:    00000000    ....    DCD    0
        0x0800014c:    0800028b    ....    DCD    134218379
        0x08000150:    0800028b    ....    DCD    134218379
        0x08000154:    0800028b    ....    DCD    134218379
        0x08000158:    0800028b    ....    DCD    134218379
        0x0800015c:    0800028b    ....    DCD    134218379
        0x08000160:    0800028b    ....    DCD    134218379
        0x08000164:    0800028b    ....    DCD    134218379
        0x08000168:    00000000    ....    DCD    0
        0x0800016c:    00000000    ....    DCD    0
        0x08000170:    00000000    ....    DCD    0
        0x08000174:    00000000    ....    DCD    0
        0x08000178:    00000000    ....    DCD    0
        0x0800017c:    00000000    ....    DCD    0
        0x08000180:    00000000    ....    DCD    0
        0x08000184:    0800028b    ....    DCD    134218379
        0x08000188:    00000000    ....    DCD    0
        0x0800018c:    00000000    ....    DCD    0
        0x08000190:    0800028b    ....    DCD    134218379
        0x08000194:    0800028b    ....    DCD    134218379
    $t
    .ARM.Collect$$$$00000000
    .ARM.Collect$$$$00000001
    __Vectors_End
    __main
    _main_stk
        0x08000198:    f8dfd010    ....    LDR      sp,__lit__00000000 ; [0x80001ac] = 0x200009a8
    .ARM.Collect$$$$00000004
    _main_scatterload
        0x0800019c:    f000fa98    ....    BL       __scatterload ; 0x80006d0
    .ARM.Collect$$$$00000008
    .ARM.Collect$$$$0000000A
    .ARM.Collect$$$$0000000B
    __main_after_scatterload
    _main_clock
    _main_cpp_init
    _main_init
        0x080001a0:    4800        .H      LDR      r0,[pc,#0] ; [0x80001a4] = 0x80018c5
        0x080001a2:    4700        .G      BX       r0
    $d
        0x080001a4:    080018c5    ....    DCD    134224069
    $t
    .ARM.Collect$$$$0000000E
    __rt_lib_shutdown_fini
        0x080001a8:    f3af8000    ....    NOP.W    
    $d
    .ARM.Collect$$$$00002712
    __lit__00000000
    .ARM.Collect$$$$0000000F
    .ARM.Collect$$$$00000011
    __rt_final_cpp
    __rt_final_exit
        0x080001ac:    200009a8    ...     DCD    536873384
    $t
    .emb_text
    $v0
    SVC_Handler
        0x080001b0:    4b2c        ,K      LDR      r3,[pc,#176] ; [0x8000264] = 0x20000014
        0x080001b2:    6819        .h      LDR      r1,[r3,#0]
        0x080001b4:    6808        .h      LDR      r0,[r1,#0]
        0x080001b6:    e8b04ff0    ...O    LDM      r0!,{r4-r11,lr}
        0x080001ba:    f3808809    ....    MSR      PSP,r0
        0x080001be:    f3bf8f6f    ..o.    ISB      
        0x080001c2:    f04f0000    O...    MOV      r0,#0
        0x080001c6:    f3808811    ....    MSR      BASEPRI,r0
        0x080001ca:    4770        pG      BX       lr
    $d
        0x080001cc:    00000000    ....    DCD    0
    $t
    __asm___6_port_c_39a90d8d__prvStartFirstTask
        0x080001d0:    4808        .H      LDR      r0,[pc,#32] ; [0x80001f4] = 0xe000ed08
        0x080001d2:    6800        .h      LDR      r0,[r0,#0]
        0x080001d4:    6800        .h      LDR      r0,[r0,#0]
        0x080001d6:    f3808808    ....    MSR      MSP,r0
        0x080001da:    f04f0000    O...    MOV      r0,#0
        0x080001de:    f3808814    ....    MSR      CONTROL,r0
        0x080001e2:    b662        b.      CPSIE    i
        0x080001e4:    b661        a.      CPSIE    f
        0x080001e6:    f3bf8f4f    ..O.    DSB      
        0x080001ea:    f3bf8f6f    ..o.    ISB      
        0x080001ee:    df00        ..      SVC      #0x0 ; formerly SWI
        0x080001f0:    bf00        ..      NOP      
        0x080001f2:    bf00        ..      NOP      
    $d
        0x080001f4:    e000ed08    ....    DCD    3758157064
    $t
    __asm___6_port_c_39a90d8d__prvEnableVFP
        0x080001f8:    f8df000c    ....    LDR.W    r0,[pc,#12] ; [0x8000208] = 0xe000ed88
        0x080001fc:    6801        .h      LDR      r1,[r0,#0]
        0x080001fe:    f4410170    A.p.    ORR      r1,r1,#0xf00000
        0x08000202:    6001        .`      STR      r1,[r0,#0]
        0x08000204:    4770        pG      BX       lr
        0x08000206:    bf00        ..      NOP      
    $d
        0x08000208:    e000ed88    ....    DCD    3758157192
    $t
    PendSV_Handler
        0x0800020c:    f3ef8009    ....    MRS      r0,PSP
        0x08000210:    f3bf8f6f    ..o.    ISB      
        0x08000214:    4b13        .K      LDR      r3,[pc,#76] ; [0x8000264] = 0x20000014
        0x08000216:    681a        .h      LDR      r2,[r3,#0]
        0x08000218:    f01e0f10    ....    TST      lr,#0x10
        0x0800021c:    bf08        ..      IT       EQ
        0x0800021e:    ed208a10     ...    VSTMDBEQ r0!,{s16-s31}
        0x08000222:    e9204ff0     ..O    STMDB    r0!,{r4-r11,lr}
        0x08000226:    6010        .`      STR      r0,[r2,#0]
        0x08000228:    b409        ..      PUSH     {r0,r3}
        0x0800022a:    f04f0050    O.P.    MOV      r0,#0x50
        0x0800022e:    f3808811    ....    MSR      BASEPRI,r0
        0x08000232:    f3bf8f4f    ..O.    DSB      
        0x08000236:    f3bf8f6f    ..o.    ISB      
        0x0800023a:    f001fc0d    ....    BL       vTaskSwitchContext ; 0x8001a58
        0x0800023e:    f04f0000    O...    MOV      r0,#0
        0x08000242:    f3808811    ....    MSR      BASEPRI,r0
        0x08000246:    bc09        ..      POP      {r0,r3}
        0x08000248:    6819        .h      LDR      r1,[r3,#0]
        0x0800024a:    6808        .h      LDR      r0,[r1,#0]
        0x0800024c:    e8b04ff0    ...O    LDM      r0!,{r4-r11,lr}
        0x08000250:    f01e0f10    ....    TST      lr,#0x10
        0x08000254:    bf08        ..      IT       EQ
        0x08000256:    ecb08a10    ....    VLDMEQ   r0!,{s16-s31}
        0x0800025a:    f3808809    ....    MSR      PSP,r0
        0x0800025e:    f3bf8f6f    ..o.    ISB      
        0x08000262:    4770        pG      BX       lr
    $d
        0x08000264:    20000014    ...     DCD    536870932
    $t
    vPortGetIPSR
        0x08000268:    f3ef8005    ....    MRS      r0,IPSR
        0x0800026c:    4770        pG      BX       lr
        0x0800026e:    0000        ..      MOVS     r0,r0
    .text
    $v0
    Reset_Handler
        0x08000270:    4806        .H      LDR      r0,[pc,#24] ; [0x800028c] = 0x8000e31
        0x08000272:    4780        .G      BLX      r0
        0x08000274:    4806        .H      LDR      r0,[pc,#24] ; [0x8000290] = 0x80018c5
        0x08000276:    4700        .G      BX       r0
        0x08000278:    e7fe        ..      B        0x8000278 ; Reset_Handler + 8
        0x0800027a:    e7fe        ..      B        0x800027a ; Reset_Handler + 10
        0x0800027c:    e7fe        ..      B        0x800027c ; Reset_Handler + 12
        0x0800027e:    e7fe        ..      B        0x800027e ; Reset_Handler + 14
        0x08000280:    e7fe        ..      B        0x8000280 ; Reset_Handler + 16
        0x08000282:    e7fe        ..      B        0x8000282 ; Reset_Handler + 18
        0x08000284:    e7fe        ..      B        0x8000284 ; Reset_Handler + 20
        0x08000286:    e7fe        ..      B        0x8000286 ; Reset_Handler + 22
        0x08000288:    e7fe        ..      B        0x8000288 ; Reset_Handler + 24
    ADC_IRQHandler
    DMA1_Stream0_IRQHandler
    DMA1_Stream1_IRQHandler
    DMA1_Stream2_IRQHandler
    DMA1_Stream3_IRQHandler
    DMA1_Stream4_IRQHandler
    DMA1_Stream5_IRQHandler
    DMA1_Stream6_IRQHandler
    DMA1_Stream7_IRQHandler
    DMA2_Stream0_IRQHandler
    DMA2_Stream1_IRQHandler
    DMA2_Stream2_IRQHandler
    DMA2_Stream3_IRQHandler
    DMA2_Stream4_IRQHandler
    DMA2_Stream5_IRQHandler
    DMA2_Stream6_IRQHandler
    DMA2_Stream7_IRQHandler
    EXTI0_IRQHandler
    EXTI15_10_IRQHandler
    EXTI1_IRQHandler
    EXTI2_IRQHandler
    EXTI3_IRQHandler
    EXTI4_IRQHandler
    EXTI9_5_IRQHandler
    FLASH_IRQHandler
    FPU_IRQHandler
    I2C1_ER_IRQHandler
    I2C1_EV_IRQHandler
    I2C2_ER_IRQHandler
    I2C2_EV_IRQHandler
    I2C3_ER_IRQHandler
    I2C3_EV_IRQHandler
    OTG_FS_IRQHandler
    OTG_FS_WKUP_IRQHandler
    PVD_IRQHandler
    RCC_IRQHandler
    RTC_Alarm_IRQHandler
    RTC_WKUP_IRQHandler
    SDIO_IRQHandler
    SPI1_IRQHandler
    SPI2_IRQHandler
    SPI3_IRQHandler
    SPI4_IRQHandler
    SPI5_IRQHandler
    TAMP_STAMP_IRQHandler
    TIM1_BRK_TIM9_IRQHandler
    TIM1_CC_IRQHandler
    TIM1_TRG_COM_TIM11_IRQHandler
    TIM2_IRQHandler
    TIM3_IRQHandler
    TIM4_IRQHandler
    TIM5_IRQHandler
    USART1_IRQHandler
    USART2_IRQHandler
    USART6_IRQHandler
    WWDG_IRQHandler
        0x0800028a:    e7fe        ..      B        ADC_IRQHandler ; 0x800028a
    $d
        0x0800028c:    08000e31    1...    DCD    134221361
        0x08000290:    080018c5    ....    DCD    134224069
    $t
    .text
    __aeabi_uldivmod
        0x08000294:    e92d5ff0    -.._    PUSH     {r4-r12,lr}
        0x08000298:    4605        .F      MOV      r5,r0
        0x0800029a:    2000        .       MOVS     r0,#0
        0x0800029c:    4692        .F      MOV      r10,r2
        0x0800029e:    469b        .F      MOV      r11,r3
        0x080002a0:    4688        .F      MOV      r8,r1
        0x080002a2:    4606        .F      MOV      r6,r0
        0x080002a4:    4681        .F      MOV      r9,r0
        0x080002a6:    2440        @$      MOVS     r4,#0x40
        0x080002a8:    e01b        ..      B        0x80002e2 ; __aeabi_uldivmod + 78
        0x080002aa:    4628        (F      MOV      r0,r5
        0x080002ac:    4641        AF      MOV      r1,r8
        0x080002ae:    4647        GF      MOV      r7,r8
        0x080002b0:    4622        "F      MOV      r2,r4
        0x080002b2:    f000f845    ..E.    BL       __aeabi_llsr ; 0x8000340
        0x080002b6:    4653        SF      MOV      r3,r10
        0x080002b8:    465a        ZF      MOV      r2,r11
        0x080002ba:    1ac0        ..      SUBS     r0,r0,r3
        0x080002bc:    4191        .A      SBCS     r1,r1,r2
        0x080002be:    d310        ..      BCC      0x80002e2 ; __aeabi_uldivmod + 78
        0x080002c0:    4611        .F      MOV      r1,r2
        0x080002c2:    4618        .F      MOV      r0,r3
        0x080002c4:    4622        "F      MOV      r2,r4
        0x080002c6:    f000f82c    ..,.    BL       __aeabi_llsl ; 0x8000322
        0x080002ca:    1a2d        -.      SUBS     r5,r5,r0
        0x080002cc:    eb670801    g...    SBC      r8,r7,r1
        0x080002d0:    464f        OF      MOV      r7,r9
        0x080002d2:    4622        "F      MOV      r2,r4
        0x080002d4:    2001        .       MOVS     r0,#1
        0x080002d6:    2100        .!      MOVS     r1,#0
        0x080002d8:    f000f823    ..#.    BL       __aeabi_llsl ; 0x8000322
        0x080002dc:    eb170900    ....    ADDS     r9,r7,r0
        0x080002e0:    414e        NA      ADCS     r6,r6,r1
        0x080002e2:    1e20         .      SUBS     r0,r4,#0
        0x080002e4:    f1a40401    ....    SUB      r4,r4,#1
        0x080002e8:    dcdf        ..      BGT      0x80002aa ; __aeabi_uldivmod + 22
        0x080002ea:    4648        HF      MOV      r0,r9
        0x080002ec:    4631        1F      MOV      r1,r6
        0x080002ee:    462a        *F      MOV      r2,r5
        0x080002f0:    4643        CF      MOV      r3,r8
        0x080002f2:    e8bd9ff0    ....    POP      {r4-r12,pc}
    .text
    __aeabi_uidiv
    __aeabi_uidivmod
        0x080002f6:    b530        0.      PUSH     {r4,r5,lr}
        0x080002f8:    460b        .F      MOV      r3,r1
        0x080002fa:    4601        .F      MOV      r1,r0
        0x080002fc:    2000        .       MOVS     r0,#0
        0x080002fe:    2220         "      MOVS     r2,#0x20
        0x08000300:    2401        .$      MOVS     r4,#1
        0x08000302:    e009        ..      B        0x8000318 ; __aeabi_uidiv + 34
        0x08000304:    fa21f502    !...    LSR      r5,r1,r2
        0x08000308:    429d        .B      CMP      r5,r3
        0x0800030a:    d305        ..      BCC      0x8000318 ; __aeabi_uidiv + 34
        0x0800030c:    fa03f502    ....    LSL      r5,r3,r2
        0x08000310:    1b49        I.      SUBS     r1,r1,r5
        0x08000312:    fa04f502    ....    LSL      r5,r4,r2
        0x08000316:    4428        (D      ADD      r0,r0,r5
        0x08000318:    1e15        ..      SUBS     r5,r2,#0
        0x0800031a:    f1a20201    ....    SUB      r2,r2,#1
        0x0800031e:    dcf1        ..      BGT      0x8000304 ; __aeabi_uidiv + 14
        0x08000320:    bd30        0.      POP      {r4,r5,pc}
    .text
    __aeabi_llsl
    _ll_shift_l
        0x08000322:    2a20         *      CMP      r2,#0x20
        0x08000324:    db04        ..      BLT      0x8000330 ; __aeabi_llsl + 14
        0x08000326:    3a20         :      SUBS     r2,r2,#0x20
        0x08000328:    fa00f102    ....    LSL      r1,r0,r2
        0x0800032c:    2000        .       MOVS     r0,#0
        0x0800032e:    4770        pG      BX       lr
        0x08000330:    4091        .@      LSLS     r1,r1,r2
        0x08000332:    f1c20320    .. .    RSB      r3,r2,#0x20
        0x08000336:    fa20f303     ...    LSR      r3,r0,r3
        0x0800033a:    4319        .C      ORRS     r1,r1,r3
        0x0800033c:    4090        .@      LSLS     r0,r0,r2
        0x0800033e:    4770        pG      BX       lr
    .text
    __aeabi_llsr
    _ll_ushift_r
        0x08000340:    2a20         *      CMP      r2,#0x20
        0x08000342:    db04        ..      BLT      0x800034e ; __aeabi_llsr + 14
        0x08000344:    3a20         :      SUBS     r2,r2,#0x20
        0x08000346:    fa21f002    !...    LSR      r0,r1,r2
        0x0800034a:    2100        .!      MOVS     r1,#0
        0x0800034c:    4770        pG      BX       lr
        0x0800034e:    fa21f302    !...    LSR      r3,r1,r2
        0x08000352:    40d0        .@      LSRS     r0,r0,r2
        0x08000354:    f1c20220    .. .    RSB      r2,r2,#0x20
        0x08000358:    4091        .@      LSLS     r1,r1,r2
        0x0800035a:    4308        .C      ORRS     r0,r0,r1
        0x0800035c:    4619        .F      MOV      r1,r3
        0x0800035e:    4770        pG      BX       lr
    .text
    .text
    __I$use$fp
    __aeabi_dadd
        0x08000360:    e92d4ffe    -..O    PUSH     {r1-r11,lr}
        0x08000364:    4680        .F      MOV      r8,r0
        0x08000366:    ea810003    ....    EOR      r0,r1,r3
        0x0800036a:    0fc0        ..      LSRS     r0,r0,#31
        0x0800036c:    460c        .F      MOV      r4,r1
        0x0800036e:    9000        ..      STR      r0,[sp,#0]
        0x08000370:    f0214100    !..A    BIC      r1,r1,#0x80000000
        0x08000374:    f0234500    #..E    BIC      r5,r3,#0x80000000
        0x08000378:    ebb80002    ....    SUBS     r0,r8,r2
        0x0800037c:    41a9        .A      SBCS     r1,r1,r5
        0x0800037e:    d205        ..      BCS      0x800038c ; __I$use$fp + 44
        0x08000380:    4640        @F      MOV      r0,r8
        0x08000382:    4621        !F      MOV      r1,r4
        0x08000384:    4690        .F      MOV      r8,r2
        0x08000386:    461c        .F      MOV      r4,r3
        0x08000388:    460b        .F      MOV      r3,r1
        0x0800038a:    4602        .F      MOV      r2,r0
        0x0800038c:    f0234000    #..@    BIC      r0,r3,#0x80000000
        0x08000390:    4310        .C      ORRS     r0,r0,r2
        0x08000392:    d047        G.      BEQ      0x8000424 ; __I$use$fp + 196
        0x08000394:    0d27        '.      LSRS     r7,r4,#20
        0x08000396:    f3c7000a    ....    UBFX     r0,r7,#0,#11
        0x0800039a:    f3c3510a    ...Q    UBFX     r1,r3,#20,#11
        0x0800039e:    9002        ..      STR      r0,[sp,#8]
        0x080003a0:    1a40        @.      SUBS     r0,r0,r1
        0x080003a2:    9001        ..      STR      r0,[sp,#4]
        0x080003a4:    2840        @(      CMP      r0,#0x40
        0x080003a6:    da6b        k.      BGE      0x8000480 ; __I$use$fp + 288
        0x080003a8:    f3c30013    ....    UBFX     r0,r3,#0,#20
        0x080003ac:    f4401b80    @...    ORR      r11,r0,#0x100000
        0x080003b0:    9800        ..      LDR      r0,[sp,#0]
        0x080003b2:    4692        .F      MOV      r10,r2
        0x080003b4:    b120         .      CBZ      r0,0x80003c0 ; __I$use$fp + 96
        0x080003b6:    2300        .#      MOVS     r3,#0
        0x080003b8:    ebd20a03    ....    RSBS     r10,r2,r3
        0x080003bc:    eb630b0b    c...    SBC      r11,r3,r11
        0x080003c0:    9801        ..      LDR      r0,[sp,#4]
        0x080003c2:    4659        YF      MOV      r1,r11
        0x080003c4:    f1c00240    ..@.    RSB      r2,r0,#0x40
        0x080003c8:    4650        PF      MOV      r0,r10
        0x080003ca:    f7ffffaa    ....    BL       __aeabi_llsl ; 0x8000322
        0x080003ce:    4606        .F      MOV      r6,r0
        0x080003d0:    460d        .F      MOV      r5,r1
        0x080003d2:    4650        PF      MOV      r0,r10
        0x080003d4:    4659        YF      MOV      r1,r11
        0x080003d6:    9a01        ..      LDR      r2,[sp,#4]
        0x080003d8:    f000f98c    ....    BL       __aeabi_lasr ; 0x80006f4
        0x080003dc:    eb100008    ....    ADDS     r0,r0,r8
        0x080003e0:    4161        aA      ADCS     r1,r1,r4
        0x080003e2:    2400        .$      MOVS     r4,#0
        0x080003e4:    ea875211    ...R    EOR      r2,r7,r1,LSR #20
        0x080003e8:    ea8473e7    ...s    EOR      r3,r4,r7,ASR #31
        0x080003ec:    431a        .C      ORRS     r2,r2,r3
        0x080003ee:    d040        @.      BEQ      0x8000472 ; __I$use$fp + 274
        0x080003f0:    9a00        ..      LDR      r2,[sp,#0]
        0x080003f2:    b362        b.      CBZ      r2,0x800044e ; __I$use$fp + 238
        0x080003f4:    9a01        ..      LDR      r2,[sp,#4]
        0x080003f6:    2a01        .*      CMP      r2,#1
        0x080003f8:    ea4f5207    O..R    LSL      r2,r7,#20
        0x080003fc:    dc15        ..      BGT      0x800042a ; __I$use$fp + 202
        0x080003fe:    1b00        ..      SUBS     r0,r0,r4
        0x08000400:    eb610102    a...    SBC      r1,r1,r2
        0x08000404:    f04f4200    O..B    MOV      r2,#0x80000000
        0x08000408:    ea025207    ...R    AND      r2,r2,r7,LSL #20
        0x0800040c:    e9cd4200    ...B    STRD     r4,r2,[sp,#0]
        0x08000410:    1c00        ..      ADDS     r0,r0,#0
        0x08000412:    f5411180    A...    ADC      r1,r1,#0x100000
        0x08000416:    4632        2F      MOV      r2,r6
        0x08000418:    462b        +F      MOV      r3,r5
        0x0800041a:    f000f98c    ....    BL       _double_epilogue ; 0x8000736
        0x0800041e:    b003        ..      ADD      sp,sp,#0xc
        0x08000420:    e8bd8ff0    ....    POP      {r4-r11,pc}
        0x08000424:    4640        @F      MOV      r0,r8
        0x08000426:    4621        !F      MOV      r1,r4
        0x08000428:    e7f9        ..      B        0x800041e ; __I$use$fp + 190
        0x0800042a:    1b00        ..      SUBS     r0,r0,r4
        0x0800042c:    eb610102    a...    SBC      r1,r1,r2
        0x08000430:    1c00        ..      ADDS     r0,r0,#0
        0x08000432:    f5411380    A...    ADC      r3,r1,#0x100000
        0x08000436:    1800        ..      ADDS     r0,r0,r0
        0x08000438:    415b        [A      ADCS     r3,r3,r3
        0x0800043a:    1820         .      ADDS     r0,r4,r0
        0x0800043c:    f5a21700    ....    SUB      r7,r2,#0x200000
        0x08000440:    eb470103    G...    ADC      r1,r7,r3
        0x08000444:    ea4070d5    @..p    ORR      r0,r0,r5,LSR #31
        0x08000448:    19b6        ..      ADDS     r6,r6,r6
        0x0800044a:    416d        mA      ADCS     r5,r5,r5
        0x0800044c:    e011        ..      B        0x8000472 ; __I$use$fp + 274
        0x0800044e:    086d        m.      LSRS     r5,r5,#1
        0x08000450:    ea4f0636    O.6.    RRX      r6,r6
        0x08000454:    ea4575c0    E..u    ORR      r5,r5,r0,LSL #31
        0x08000458:    ea4f5207    O..R    LSL      r2,r7,#20
        0x0800045c:    1b00        ..      SUBS     r0,r0,r4
        0x0800045e:    eb610102    a...    SBC      r1,r1,r2
        0x08000462:    1c00        ..      ADDS     r0,r0,#0
        0x08000464:    f5411180    A...    ADC      r1,r1,#0x100000
        0x08000468:    0849        I.      LSRS     r1,r1,#1
        0x0800046a:    ea4f0030    O.0.    RRX      r0,r0
        0x0800046e:    1900        ..      ADDS     r0,r0,r4
        0x08000470:    4151        QA      ADCS     r1,r1,r2
        0x08000472:    4632        2F      MOV      r2,r6
        0x08000474:    462b        +F      MOV      r3,r5
        0x08000476:    b003        ..      ADD      sp,sp,#0xc
        0x08000478:    e8bd4ff0    ...O    POP      {r4-r11,lr}
        0x0800047c:    f000b94c    ..L.    B.W      _double_round ; 0x8000718
        0x08000480:    9800        ..      LDR      r0,[sp,#0]
        0x08000482:    2201        ."      MOVS     r2,#1
        0x08000484:    0040        @.      LSLS     r0,r0,#1
        0x08000486:    2300        .#      MOVS     r3,#0
        0x08000488:    ebd00202    ....    RSBS     r2,r0,r2
        0x0800048c:    eb6373e0    c..s    SBC      r3,r3,r0,ASR #31
        0x08000490:    9800        ..      LDR      r0,[sp,#0]
        0x08000492:    4621        !F      MOV      r1,r4
        0x08000494:    ea4f74e0    O..t    ASR      r4,r0,#31
        0x08000498:    ebb80000    ....    SUBS     r0,r8,r0
        0x0800049c:    eb610104    a...    SBC      r1,r1,r4
        0x080004a0:    e7e9        ..      B        0x8000476 ; __I$use$fp + 278
    __aeabi_dsub
        0x080004a2:    f0834300    ...C    EOR      r3,r3,#0x80000000
        0x080004a6:    e75b        [.      B        __I$use$fp ; 0x8000360
    __aeabi_drsub
        0x080004a8:    f0814100    ...A    EOR      r1,r1,#0x80000000
        0x080004ac:    e758        X.      B        __I$use$fp ; 0x8000360
    .text
    __aeabi_dmul
        0x080004ae:    e92d4ffe    -..O    PUSH     {r1-r11,lr}
        0x080004b2:    ea810403    ....    EOR      r4,r1,r3
        0x080004b6:    f0044400    ...D    AND      r4,r4,#0x80000000
        0x080004ba:    f0214100    !..A    BIC      r1,r1,#0x80000000
        0x080004be:    9400        ..      STR      r4,[sp,#0]
        0x080004c0:    f04f0b00    O...    MOV      r11,#0
        0x080004c4:    f0234300    #..C    BIC      r3,r3,#0x80000000
        0x080004c8:    ea500401    P...    ORRS     r4,r0,r1
        0x080004cc:    d05e        ^.      BEQ      0x800058c ; __aeabi_dmul + 222
        0x080004ce:    ea520403    R...    ORRS     r4,r2,r3
        0x080004d2:    d05b        [.      BEQ      0x800058c ; __aeabi_dmul + 222
        0x080004d4:    f3c3540a    ...T    UBFX     r4,r3,#20,#11
        0x080004d8:    f3c1550a    ...U    UBFX     r5,r1,#20,#11
        0x080004dc:    442c        ,D      ADD      r4,r4,r5
        0x080004de:    f2a434f3    ...4    SUB      r4,r4,#0x3f3
        0x080004e2:    9401        ..      STR      r4,[sp,#4]
        0x080004e4:    fba05402    ...T    UMULL    r5,r4,r0,r2
        0x080004e8:    f3c10113    ....    UBFX     r1,r1,#0,#20
        0x080004ec:    f4411180    A...    ORR      r1,r1,#0x100000
        0x080004f0:    f3c30313    ....    UBFX     r3,r3,#0,#20
        0x080004f4:    f4431380    C...    ORR      r3,r3,#0x100000
        0x080004f8:    fb014402    ...D    MLA      r4,r1,r2,r4
        0x080004fc:    fb004e03    ...N    MLA      lr,r0,r3,r4
        0x08000500:    0a84        ..      LSRS     r4,r0,#10
        0x08000502:    0a97        ..      LSRS     r7,r2,#10
        0x08000504:    ea445481    D..T    ORR      r4,r4,r1,LSL #22
        0x08000508:    ea475783    G..W    ORR      r7,r7,r3,LSL #22
        0x0800050c:    fba46807    ...h    UMULL    r6,r8,r4,r7
        0x08000510:    9502        ..      STR      r5,[sp,#8]
        0x08000512:    0a8d        ..      LSRS     r5,r1,#10
        0x08000514:    fb058507    ....    MLA      r5,r5,r7,r8
        0x08000518:    ea4f2c93    O..,    LSR      r12,r3,#10
        0x0800051c:    fb04540c    ...T    MLA      r4,r4,r12,r5
        0x08000520:    0527        '.      LSLS     r7,r4,#20
        0x08000522:    9d02        ..      LDR      r5,[sp,#8]
        0x08000524:    ea4f5806    O..X    LSL      r8,r6,#20
        0x08000528:    ea473716    G..7    ORR      r7,r7,r6,LSR #12
        0x0800052c:    ebb50508    ....    SUBS     r5,r5,r8
        0x08000530:    eb6e0c07    n...    SBC      r12,lr,r7
        0x08000534:    0e87        ..      LSRS     r7,r0,#26
        0x08000536:    0e92        ..      LSRS     r2,r2,#26
        0x08000538:    ea471781    G...    ORR      r7,r7,r1,LSL #6
        0x0800053c:    ea421283    B...    ORR      r2,r2,r3,LSL #6
        0x08000540:    fba70102    ....    UMULL    r0,r1,r7,r2
        0x08000544:    ebb6010b    ....    SUBS     r1,r6,r11
        0x08000548:    eb640400    d...    SBC      r4,r4,r0
        0x0800054c:    0d2b        +.      LSRS     r3,r5,#20
        0x0800054e:    ea43330c    C..3    ORR      r3,r3,r12,LSL #12
        0x08000552:    185e        ^.      ADDS     r6,r3,r1
        0x08000554:    eb44501c    D..P    ADC      r0,r4,r12,LSR #20
        0x08000558:    46da        .F      MOV      r10,r11
        0x0800055a:    4651        QF      MOV      r1,r10
        0x0800055c:    fbe70102    ....    UMLAL    r0,r1,r7,r2
        0x08000560:    f3c50413    ....    UBFX     r4,r5,#0,#20
        0x08000564:    ea4f330b    O..3    LSL      r3,r11,#12
        0x08000568:    ea435314    C..S    ORR      r3,r3,r4,LSR #20
        0x0800056c:    ea4f3204    O..2    LSL      r2,r4,#12
        0x08000570:    9c01        ..      LDR      r4,[sp,#4]
        0x08000572:    ea430306    C...    ORR      r3,r3,r6
        0x08000576:    f1a4040c    ....    SUB      r4,r4,#0xc
        0x0800057a:    9402        ..      STR      r4,[sp,#8]
        0x0800057c:    9c00        ..      LDR      r4,[sp,#0]
        0x0800057e:    e9cdb400    ....    STRD     r11,r4,[sp,#0]
        0x08000582:    f000f8d8    ....    BL       _double_epilogue ; 0x8000736
        0x08000586:    b003        ..      ADD      sp,sp,#0xc
        0x08000588:    e8bd8ff0    ....    POP      {r4-r11,pc}
        0x0800058c:    2000        .       MOVS     r0,#0
        0x0800058e:    4601        .F      MOV      r1,r0
        0x08000590:    e7f9        ..      B        0x8000586 ; __aeabi_dmul + 216
    .text
    __aeabi_ddiv
        0x08000592:    e92d4df0    -..M    PUSH     {r4-r8,r10,r11,lr}
        0x08000596:    ea810403    ....    EOR      r4,r1,r3
        0x0800059a:    f0044b00    ...K    AND      r11,r4,#0x80000000
        0x0800059e:    f0214500    !..E    BIC      r5,r1,#0x80000000
        0x080005a2:    4614        .F      MOV      r4,r2
        0x080005a4:    f04f0a00    O...    MOV      r10,#0
        0x080005a8:    f0234100    #..A    BIC      r1,r3,#0x80000000
        0x080005ac:    ea500205    P...    ORRS     r2,r0,r5
        0x080005b0:    d020         .      BEQ      0x80005f4 ; __aeabi_ddiv + 98
        0x080005b2:    ea540201    T...    ORRS     r2,r4,r1
        0x080005b6:    d01d        ..      BEQ      0x80005f4 ; __aeabi_ddiv + 98
        0x080005b8:    f3c5570a    ...W    UBFX     r7,r5,#20,#11
        0x080005bc:    4602        .F      MOV      r2,r0
        0x080005be:    f3c50313    ....    UBFX     r3,r5,#0,#20
        0x080005c2:    f3c10013    ....    UBFX     r0,r1,#0,#20
        0x080005c6:    f3c1560a    ...V    UBFX     r6,r1,#20,#11
        0x080005ca:    f4401580    @...    ORR      r5,r0,#0x100000
        0x080005ce:    f4431380    C...    ORR      r3,r3,#0x100000
        0x080005d2:    eba70806    ....    SUB      r8,r7,r6
        0x080005d6:    1b10        ..      SUBS     r0,r2,r4
        0x080005d8:    46d6        .F      MOV      lr,r10
        0x080005da:    f20838fd    ...8    ADD      r8,r8,#0x3fd
        0x080005de:    eb730005    s...    SBCS     r0,r3,r5
        0x080005e2:    d302        ..      BCC      0x80005ea ; __aeabi_ddiv + 88
        0x080005e4:    f1080801    ....    ADD      r8,r8,#1
        0x080005e8:    e001        ..      B        0x80005ee ; __aeabi_ddiv + 92
        0x080005ea:    1892        ..      ADDS     r2,r2,r2
        0x080005ec:    415b        [A      ADCS     r3,r3,r3
        0x080005ee:    f1b80f00    ....    CMP      r8,#0
        0x080005f2:    da03        ..      BGE      0x80005fc ; __aeabi_ddiv + 106
        0x080005f4:    2000        .       MOVS     r0,#0
        0x080005f6:    4601        .F      MOV      r1,r0
        0x080005f8:    e8bd8df0    ....    POP      {r4-r8,r10,r11,pc}
        0x080005fc:    2000        .       MOVS     r0,#0
        0x080005fe:    f44f1180    O...    MOV      r1,#0x100000
        0x08000602:    4606        .F      MOV      r6,r0
        0x08000604:    4684        .F      MOV      r12,r0
        0x08000606:    e00e        ..      B        0x8000626 ; __aeabi_ddiv + 148
        0x08000608:    1b17        ..      SUBS     r7,r2,r4
        0x0800060a:    eb730705    s...    SBCS     r7,r3,r5
        0x0800060e:    d305        ..      BCC      0x800061c ; __aeabi_ddiv + 138
        0x08000610:    1b12        ..      SUBS     r2,r2,r4
        0x08000612:    eb630305    c...    SBC      r3,r3,r5
        0x08000616:    4306        .C      ORRS     r6,r6,r0
        0x08000618:    ea4c0c01    L...    ORR      r12,r12,r1
        0x0800061c:    0849        I.      LSRS     r1,r1,#1
        0x0800061e:    ea4f0030    O.0.    RRX      r0,r0
        0x08000622:    1892        ..      ADDS     r2,r2,r2
        0x08000624:    415b        [A      ADCS     r3,r3,r3
        0x08000626:    ea500701    P...    ORRS     r7,r0,r1
        0x0800062a:    d1ed        ..      BNE      0x8000608 ; __aeabi_ddiv + 118
        0x0800062c:    ea520003    R...    ORRS     r0,r2,r3
        0x08000630:    d012        ..      BEQ      0x8000658 ; __aeabi_ddiv + 198
        0x08000632:    ea820004    ....    EOR      r0,r2,r4
        0x08000636:    ea830105    ....    EOR      r1,r3,r5
        0x0800063a:    4308        .C      ORRS     r0,r0,r1
        0x0800063c:    d005        ..      BEQ      0x800064a ; __aeabi_ddiv + 184
        0x0800063e:    1b10        ..      SUBS     r0,r2,r4
        0x08000640:    41ab        .A      SBCS     r3,r3,r5
        0x08000642:    d206        ..      BCS      0x8000652 ; __aeabi_ddiv + 192
        0x08000644:    2201        ."      MOVS     r2,#1
        0x08000646:    2300        .#      MOVS     r3,#0
        0x08000648:    e006        ..      B        0x8000658 ; __aeabi_ddiv + 198
        0x0800064a:    2200        ."      MOVS     r2,#0
        0x0800064c:    f04f4300    O..C    MOV      r3,#0x80000000
        0x08000650:    e002        ..      B        0x8000658 ; __aeabi_ddiv + 198
        0x08000652:    f06f0201    o...    MVN      r2,#1
        0x08000656:    1053        S.      ASRS     r3,r2,#1
        0x08000658:    eb1a0006    ....    ADDS     r0,r10,r6
        0x0800065c:    eb4c5108    L..Q    ADC      r1,r12,r8,LSL #20
        0x08000660:    eb10000a    ....    ADDS     r0,r0,r10
        0x08000664:    eb41010b    A...    ADC      r1,r1,r11
        0x08000668:    e8bd4df0    ...M    POP      {r4-r8,r10,r11,lr}
        0x0800066c:    f000b854    ..T.    B.W      _double_round ; 0x8000718
    .text
    __aeabi_d2ulz
        0x08000670:    f3c1520a    ...R    UBFX     r2,r1,#20,#11
        0x08000674:    f3c10113    ....    UBFX     r1,r1,#0,#20
        0x08000678:    f24033ff    @..3    MOV      r3,#0x3ff
        0x0800067c:    f4411180    A...    ORR      r1,r1,#0x100000
        0x08000680:    429a        .B      CMP      r2,r3
        0x08000682:    da02        ..      BGE      0x800068a ; __aeabi_d2ulz + 26
        0x08000684:    2000        .       MOVS     r0,#0
        0x08000686:    4601        .F      MOV      r1,r0
        0x08000688:    4770        pG      BX       lr
        0x0800068a:    f2404333    @.3C    MOV      r3,#0x433
        0x0800068e:    429a        .B      CMP      r2,r3
        0x08000690:    f2a24233    ..3B    SUB      r2,r2,#0x433
        0x08000694:    dc02        ..      BGT      0x800069c ; __aeabi_d2ulz + 44
        0x08000696:    4252        RB      RSBS     r2,r2,#0
        0x08000698:    f7ffbe52    ..R.    B.W      __aeabi_llsr ; 0x8000340
        0x0800069c:    f7ffbe41    ..A.    B.W      __aeabi_llsl ; 0x8000322
    .text
    __aeabi_cdrcmple
        0x080006a0:    b530        0.      PUSH     {r4,r5,lr}
        0x080006a2:    1e04        ..      SUBS     r4,r0,#0
        0x080006a4:    f1710400    q...    SBCS     r4,r1,#0
        0x080006a8:    db04        ..      BLT      0x80006b4 ; __aeabi_cdrcmple + 20
        0x080006aa:    f04f4400    O..D    MOV      r4,#0x80000000
        0x080006ae:    4240        @B      RSBS     r0,r0,#0
        0x080006b0:    eb640101    d...    SBC      r1,r4,r1
        0x080006b4:    1e14        ..      SUBS     r4,r2,#0
        0x080006b6:    f1730400    s...    SBCS     r4,r3,#0
        0x080006ba:    db05        ..      BLT      0x80006c8 ; __aeabi_cdrcmple + 40
        0x080006bc:    461c        .F      MOV      r4,r3
        0x080006be:    f04f4300    O..C    MOV      r3,#0x80000000
        0x080006c2:    4252        RB      RSBS     r2,r2,#0
        0x080006c4:    eb630304    c...    SBC      r3,r3,r4
        0x080006c8:    4299        .B      CMP      r1,r3
        0x080006ca:    bf08        ..      IT       EQ
        0x080006cc:    4290        .B      CMPEQ    r0,r2
        0x080006ce:    bd30        0.      POP      {r4,r5,pc}
    .text
    __scatterload
    __scatterload_rt2
        0x080006d0:    4c06        .L      LDR      r4,[pc,#24] ; [0x80006ec] = 0x8001c98
        0x080006d2:    4d07        .M      LDR      r5,[pc,#28] ; [0x80006f0] = 0x8001cb8
        0x080006d4:    e006        ..      B        0x80006e4 ; __scatterload + 20
        0x080006d6:    68e0        .h      LDR      r0,[r4,#0xc]
        0x080006d8:    f0400301    @...    ORR      r3,r0,#1
        0x080006dc:    e8940007    ....    LDM      r4,{r0-r2}
        0x080006e0:    4798        .G      BLX      r3
        0x080006e2:    3410        .4      ADDS     r4,r4,#0x10
        0x080006e4:    42ac        .B      CMP      r4,r5
        0x080006e6:    d3f6        ..      BCC      0x80006d6 ; __scatterload + 6
        0x080006e8:    f7fffd5a    ..Z.    BL       __main_after_scatterload ; 0x80001a0
    $d
        0x080006ec:    08001c98    ....    DCD    134225048
        0x080006f0:    08001cb8    ....    DCD    134225080
    $t
    .text
    __aeabi_lasr
    _ll_sshift_r
        0x080006f4:    2a20         *      CMP      r2,#0x20
        0x080006f6:    db06        ..      BLT      0x8000706 ; __aeabi_lasr + 18
        0x080006f8:    17cb        ..      ASRS     r3,r1,#31
        0x080006fa:    3a20         :      SUBS     r2,r2,#0x20
        0x080006fc:    fa41f002    A...    ASR      r0,r1,r2
        0x08000700:    ea4373e0    C..s    ORR      r3,r3,r0,ASR #31
        0x08000704:    e006        ..      B        0x8000714 ; __aeabi_lasr + 32
        0x08000706:    fa41f302    A...    ASR      r3,r1,r2
        0x0800070a:    40d0        .@      LSRS     r0,r0,r2
        0x0800070c:    f1c20220    .. .    RSB      r2,r2,#0x20
        0x08000710:    4091        .@      LSLS     r1,r1,r2
        0x08000712:    4308        .C      ORRS     r0,r0,r1
        0x08000714:    4619        .F      MOV      r1,r3
        0x08000716:    4770        pG      BX       lr
    .text
    _double_round
        0x08000718:    b510        ..      PUSH     {r4,lr}
        0x0800071a:    1e14        ..      SUBS     r4,r2,#0
        0x0800071c:    f1730400    s...    SBCS     r4,r3,#0
        0x08000720:    da08        ..      BGE      0x8000734 ; _double_round + 28
        0x08000722:    1c40        @.      ADDS     r0,r0,#1
        0x08000724:    f1410100    A...    ADC      r1,r1,#0
        0x08000728:    1892        ..      ADDS     r2,r2,r2
        0x0800072a:    415b        [A      ADCS     r3,r3,r3
        0x0800072c:    431a        .C      ORRS     r2,r2,r3
        0x0800072e:    d101        ..      BNE      0x8000734 ; _double_round + 28
        0x08000730:    f0200001     ...    BIC      r0,r0,#1
        0x08000734:    bd10        ..      POP      {r4,pc}
    _double_epilogue
        0x08000736:    e92d4df0    -..M    PUSH     {r4-r8,r10,r11,lr}
        0x0800073a:    4692        .F      MOV      r10,r2
        0x0800073c:    469b        .F      MOV      r11,r3
        0x0800073e:    b111        ..      CBZ      r1,0x8000746 ; _double_epilogue + 16
        0x08000740:    fab1f281    ....    CLZ      r2,r1
        0x08000744:    e002        ..      B        0x800074c ; _double_epilogue + 22
        0x08000746:    fab0f280    ....    CLZ      r2,r0
        0x0800074a:    3220         2      ADDS     r2,r2,#0x20
        0x0800074c:    4690        .F      MOV      r8,r2
        0x0800074e:    f7fffde8    ....    BL       __aeabi_llsl ; 0x8000322
        0x08000752:    4604        .F      MOV      r4,r0
        0x08000754:    460f        .F      MOV      r7,r1
        0x08000756:    ea40000a    @...    ORR      r0,r0,r10
        0x0800075a:    ea41010b    A...    ORR      r1,r1,r11
        0x0800075e:    4653        SF      MOV      r3,r10
        0x08000760:    465a        ZF      MOV      r2,r11
        0x08000762:    4308        .C      ORRS     r0,r0,r1
        0x08000764:    d013        ..      BEQ      0x800078e ; _double_epilogue + 88
        0x08000766:    4611        .F      MOV      r1,r2
        0x08000768:    ea530001    S...    ORRS     r0,r3,r1
        0x0800076c:    d019        ..      BEQ      0x80007a2 ; _double_epilogue + 108
        0x0800076e:    f1c80240    ..@.    RSB      r2,r8,#0x40
        0x08000772:    4650        PF      MOV      r0,r10
        0x08000774:    f7fffde4    ....    BL       __aeabi_llsr ; 0x8000340
        0x08000778:    4605        .F      MOV      r5,r0
        0x0800077a:    460e        .F      MOV      r6,r1
        0x0800077c:    4650        PF      MOV      r0,r10
        0x0800077e:    4659        YF      MOV      r1,r11
        0x08000780:    4642        BF      MOV      r2,r8
        0x08000782:    f7fffdce    ....    BL       __aeabi_llsl ; 0x8000322
        0x08000786:    4308        .C      ORRS     r0,r0,r1
        0x08000788:    d005        ..      BEQ      0x8000796 ; _double_epilogue + 96
        0x0800078a:    2001        .       MOVS     r0,#1
        0x0800078c:    e004        ..      B        0x8000798 ; _double_epilogue + 98
        0x0800078e:    4620         F      MOV      r0,r4
        0x08000790:    4639        9F      MOV      r1,r7
        0x08000792:    e8bd8df0    ....    POP      {r4-r8,r10,r11,pc}
        0x08000796:    2000        .       MOVS     r0,#0
        0x08000798:    4305        .C      ORRS     r5,r5,r0
        0x0800079a:    ea4676e0    F..v    ORR      r6,r6,r0,ASR #31
        0x0800079e:    432c        ,C      ORRS     r4,r4,r5
        0x080007a0:    4337        7C      ORRS     r7,r7,r6
        0x080007a2:    980a        ..      LDR      r0,[sp,#0x28]
        0x080007a4:    0563        c.      LSLS     r3,r4,#21
        0x080007a6:    0ae4        ..      LSRS     r4,r4,#11
        0x080007a8:    eba00008    ....    SUB      r0,r0,r8
        0x080007ac:    2200        ."      MOVS     r2,#0
        0x080007ae:    0afd        ..      LSRS     r5,r7,#11
        0x080007b0:    ea445447    D.GT    ORR      r4,r4,r7,LSL #21
        0x080007b4:    300a        .0      ADDS     r0,r0,#0xa
        0x080007b6:    d502        ..      BPL      0x80007be ; _double_epilogue + 136
        0x080007b8:    2000        .       MOVS     r0,#0
        0x080007ba:    4601        .F      MOV      r1,r0
        0x080007bc:    e7e9        ..      B        0x8000792 ; _double_epilogue + 92
        0x080007be:    0501        ..      LSLS     r1,r0,#20
        0x080007c0:    1910        ..      ADDS     r0,r2,r4
        0x080007c2:    4169        iA      ADCS     r1,r1,r5
        0x080007c4:    e9dd4508    ...E    LDRD     r4,r5,[sp,#0x20]
        0x080007c8:    1900        ..      ADDS     r0,r0,r4
        0x080007ca:    4169        iA      ADCS     r1,r1,r5
        0x080007cc:    e8bd4df0    ...M    POP      {r4-r8,r10,r11,lr}
        0x080007d0:    e7a2        ..      B        _double_round ; 0x8000718
    i.BusFault_Handler
    BusFault_Handler
        0x080007d2:    bf00        ..      NOP      
        0x080007d4:    e7fe        ..      B        0x80007d4 ; BusFault_Handler + 2
    i.DebugMon_Handler
    DebugMon_Handler
        0x080007d6:    4770        pG      BX       lr
    i.HAL_Delay
    HAL_Delay
        0x080007d8:    b570        p.      PUSH     {r4-r6,lr}
        0x080007da:    4604        .F      MOV      r4,r0
        0x080007dc:    f000f810    ....    BL       HAL_GetTick ; 0x8000800
        0x080007e0:    4606        .F      MOV      r6,r0
        0x080007e2:    4625        %F      MOV      r5,r4
        0x080007e4:    1c68        h.      ADDS     r0,r5,#1
        0x080007e6:    b110        ..      CBZ      r0,0x80007ee ; HAL_Delay + 22
        0x080007e8:    4804        .H      LDR      r0,[pc,#16] ; [0x80007fc] = 0x2000000c
        0x080007ea:    7800        .x      LDRB     r0,[r0,#0]
        0x080007ec:    4405        .D      ADD      r5,r5,r0
        0x080007ee:    bf00        ..      NOP      
        0x080007f0:    f000f806    ....    BL       HAL_GetTick ; 0x8000800
        0x080007f4:    1b80        ..      SUBS     r0,r0,r6
        0x080007f6:    42a8        .B      CMP      r0,r5
        0x080007f8:    d3fa        ..      BCC      0x80007f0 ; HAL_Delay + 24
        0x080007fa:    bd70        p.      POP      {r4-r6,pc}
    $d
        0x080007fc:    2000000c    ...     DCD    536870924
    $t
    i.HAL_GetTick
    HAL_GetTick
        0x08000800:    4801        .H      LDR      r0,[pc,#4] ; [0x8000808] = 0x20000004
        0x08000802:    6800        .h      LDR      r0,[r0,#0]
        0x08000804:    4770        pG      BX       lr
    $d
        0x08000806:    0000        ..      DCW    0
        0x08000808:    20000004    ...     DCD    536870916
    $t
    i.HAL_IncTick
    HAL_IncTick
        0x0800080c:    4803        .H      LDR      r0,[pc,#12] ; [0x800081c] = 0x20000004
        0x0800080e:    6800        .h      LDR      r0,[r0,#0]
        0x08000810:    4903        .I      LDR      r1,[pc,#12] ; [0x8000820] = 0x2000000c
        0x08000812:    7809        .x      LDRB     r1,[r1,#0]
        0x08000814:    4408        .D      ADD      r0,r0,r1
        0x08000816:    4901        .I      LDR      r1,[pc,#4] ; [0x800081c] = 0x20000004
        0x08000818:    6008        .`      STR      r0,[r1,#0]
        0x0800081a:    4770        pG      BX       lr
    $d
        0x0800081c:    20000004    ...     DCD    536870916
        0x08000820:    2000000c    ...     DCD    536870924
    $t
    i.HAL_Init
    HAL_Init
        0x08000824:    b510        ..      PUSH     {r4,lr}
        0x08000826:    480d        .H      LDR      r0,[pc,#52] ; [0x800085c] = 0x40023c00
        0x08000828:    6800        .h      LDR      r0,[r0,#0]
        0x0800082a:    f4407000    @..p    ORR      r0,r0,#0x200
        0x0800082e:    490b        .I      LDR      r1,[pc,#44] ; [0x800085c] = 0x40023c00
        0x08000830:    6008        .`      STR      r0,[r1,#0]
        0x08000832:    4608        .F      MOV      r0,r1
        0x08000834:    6800        .h      LDR      r0,[r0,#0]
        0x08000836:    f4406080    @..`    ORR      r0,r0,#0x400
        0x0800083a:    6008        .`      STR      r0,[r1,#0]
        0x0800083c:    4608        .F      MOV      r0,r1
        0x0800083e:    6800        .h      LDR      r0,[r0,#0]
        0x08000840:    f4407080    @..p    ORR      r0,r0,#0x100
        0x08000844:    6008        .`      STR      r0,[r1,#0]
        0x08000846:    2003        .       MOVS     r0,#3
        0x08000848:    f000f8d2    ....    BL       HAL_NVIC_SetPriorityGrouping ; 0x80009f0
        0x0800084c:    200f        .       MOVS     r0,#0xf
        0x0800084e:    f000f807    ....    BL       HAL_InitTick ; 0x8000860
        0x08000852:    f000f855    ..U.    BL       HAL_MspInit ; 0x8000900
        0x08000856:    2000        .       MOVS     r0,#0
        0x08000858:    bd10        ..      POP      {r4,pc}
    $d
        0x0800085a:    0000        ..      DCW    0
        0x0800085c:    40023c00    .<.@    DCD    1073888256
    $t
    i.HAL_InitTick
    HAL_InitTick
        0x08000860:    b5f0        ..      PUSH     {r4-r7,lr}
        0x08000862:    b087        ..      SUB      sp,sp,#0x1c
        0x08000864:    4604        .F      MOV      r4,r0
        0x08000866:    2600        .&      MOVS     r6,#0
        0x08000868:    2700        .'      MOVS     r7,#0
        0x0800086a:    bf00        ..      NOP      
        0x0800086c:    2000        .       MOVS     r0,#0
        0x0800086e:    9000        ..      STR      r0,[sp,#0]
        0x08000870:    481e        .H      LDR      r0,[pc,#120] ; [0x80008ec] = 0x40023844
        0x08000872:    6800        .h      LDR      r0,[r0,#0]
        0x08000874:    f0400001    @...    ORR      r0,r0,#1
        0x08000878:    491c        .I      LDR      r1,[pc,#112] ; [0x80008ec] = 0x40023844
        0x0800087a:    6008        .`      STR      r0,[r1,#0]
        0x0800087c:    4608        .F      MOV      r0,r1
        0x0800087e:    6800        .h      LDR      r0,[r0,#0]
        0x08000880:    f0000001    ....    AND      r0,r0,#1
        0x08000884:    9000        ..      STR      r0,[sp,#0]
        0x08000886:    bf00        ..      NOP      
        0x08000888:    bf00        ..      NOP      
        0x0800088a:    a901        ..      ADD      r1,sp,#4
        0x0800088c:    a802        ..      ADD      r0,sp,#8
        0x0800088e:    f000f8c3    ....    BL       HAL_RCC_GetClockConfig ; 0x8000a18
        0x08000892:    f000f8e9    ....    BL       HAL_RCC_GetPCLK2Freq ; 0x8000a68
        0x08000896:    4606        .F      MOV      r6,r0
        0x08000898:    4815        .H      LDR      r0,[pc,#84] ; [0x80008f0] = 0xf4240
        0x0800089a:    fbb6f0f0    ....    UDIV     r0,r6,r0
        0x0800089e:    1e47        G.      SUBS     r7,r0,#1
        0x080008a0:    4814        .H      LDR      r0,[pc,#80] ; [0x80008f4] = 0x40010000
        0x080008a2:    4915        .I      LDR      r1,[pc,#84] ; [0x80008f8] = 0x20000098
        0x080008a4:    6008        .`      STR      r0,[r1,#0]
        0x080008a6:    f24031e7    @..1    MOV      r1,#0x3e7
        0x080008aa:    4813        .H      LDR      r0,[pc,#76] ; [0x80008f8] = 0x20000098
        0x080008ac:    60c1        .`      STR      r1,[r0,#0xc]
        0x080008ae:    6047        G`      STR      r7,[r0,#4]
        0x080008b0:    2100        .!      MOVS     r1,#0
        0x080008b2:    6101        .a      STR      r1,[r0,#0x10]
        0x080008b4:    6081        .`      STR      r1,[r0,#8]
        0x080008b6:    6181        .a      STR      r1,[r0,#0x18]
        0x080008b8:    f000f8e8    ....    BL       HAL_TIM_Base_Init ; 0x8000a8c
        0x080008bc:    4605        .F      MOV      r5,r0
        0x080008be:    b995        ..      CBNZ     r5,0x80008e6 ; HAL_InitTick + 134
        0x080008c0:    480d        .H      LDR      r0,[pc,#52] ; [0x80008f8] = 0x20000098
        0x080008c2:    f000f917    ....    BL       HAL_TIM_Base_Start_IT ; 0x8000af4
        0x080008c6:    4605        .F      MOV      r5,r0
        0x080008c8:    b96d        m.      CBNZ     r5,0x80008e6 ; HAL_InitTick + 134
        0x080008ca:    2019        .       MOVS     r0,#0x19
        0x080008cc:    f000f842    ..B.    BL       HAL_NVIC_EnableIRQ ; 0x8000954
        0x080008d0:    2c10        .,      CMP      r4,#0x10
        0x080008d2:    d207        ..      BCS      0x80008e4 ; HAL_InitTick + 132
        0x080008d4:    2200        ."      MOVS     r2,#0
        0x080008d6:    4621        !F      MOV      r1,r4
        0x080008d8:    2019        .       MOVS     r0,#0x19
        0x080008da:    f000f84b    ..K.    BL       HAL_NVIC_SetPriority ; 0x8000974
        0x080008de:    4807        .H      LDR      r0,[pc,#28] ; [0x80008fc] = 0x20000008
        0x080008e0:    6004        .`      STR      r4,[r0,#0]
        0x080008e2:    e000        ..      B        0x80008e6 ; HAL_InitTick + 134
        0x080008e4:    2501        .%      MOVS     r5,#1
        0x080008e6:    4628        (F      MOV      r0,r5
        0x080008e8:    b007        ..      ADD      sp,sp,#0x1c
        0x080008ea:    bdf0        ..      POP      {r4-r7,pc}
    $d
        0x080008ec:    40023844    D8.@    DCD    1073887300
        0x080008f0:    000f4240    @B..    DCD    1000000
        0x080008f4:    40010000    ...@    DCD    1073807360
        0x080008f8:    20000098    ...     DCD    536871064
        0x080008fc:    20000008    ...     DCD    536870920
    $t
    i.HAL_MspInit
    HAL_MspInit
        0x08000900:    b508        ..      PUSH     {r3,lr}
        0x08000902:    bf00        ..      NOP      
        0x08000904:    2000        .       MOVS     r0,#0
        0x08000906:    9000        ..      STR      r0,[sp,#0]
        0x08000908:    4811        .H      LDR      r0,[pc,#68] ; [0x8000950] = 0x40023844
        0x0800090a:    6800        .h      LDR      r0,[r0,#0]
        0x0800090c:    f4404080    @..@    ORR      r0,r0,#0x4000
        0x08000910:    490f        .I      LDR      r1,[pc,#60] ; [0x8000950] = 0x40023844
        0x08000912:    6008        .`      STR      r0,[r1,#0]
        0x08000914:    4608        .F      MOV      r0,r1
        0x08000916:    6800        .h      LDR      r0,[r0,#0]
        0x08000918:    f4004080    ...@    AND      r0,r0,#0x4000
        0x0800091c:    9000        ..      STR      r0,[sp,#0]
        0x0800091e:    bf00        ..      NOP      
        0x08000920:    bf00        ..      NOP      
        0x08000922:    bf00        ..      NOP      
        0x08000924:    2000        .       MOVS     r0,#0
        0x08000926:    9000        ..      STR      r0,[sp,#0]
        0x08000928:    1f08        ..      SUBS     r0,r1,#4
        0x0800092a:    6800        .h      LDR      r0,[r0,#0]
        0x0800092c:    f0405080    @..P    ORR      r0,r0,#0x10000000
        0x08000930:    1f09        ..      SUBS     r1,r1,#4
        0x08000932:    6008        .`      STR      r0,[r1,#0]
        0x08000934:    4608        .F      MOV      r0,r1
        0x08000936:    6800        .h      LDR      r0,[r0,#0]
        0x08000938:    f0005080    ...P    AND      r0,r0,#0x10000000
        0x0800093c:    9000        ..      STR      r0,[sp,#0]
        0x0800093e:    bf00        ..      NOP      
        0x08000940:    bf00        ..      NOP      
        0x08000942:    2200        ."      MOVS     r2,#0
        0x08000944:    210f        .!      MOVS     r1,#0xf
        0x08000946:    1e90        ..      SUBS     r0,r2,#2
        0x08000948:    f000f814    ....    BL       HAL_NVIC_SetPriority ; 0x8000974
        0x0800094c:    bd08        ..      POP      {r3,pc}
    $d
        0x0800094e:    0000        ..      DCW    0
        0x08000950:    40023844    D8.@    DCD    1073887300
    $t
    i.HAL_NVIC_EnableIRQ
    HAL_NVIC_EnableIRQ
        0x08000954:    4601        .F      MOV      r1,r0
        0x08000956:    4608        .F      MOV      r0,r1
        0x08000958:    2800        .(      CMP      r0,#0
        0x0800095a:    db09        ..      BLT      0x8000970 ; HAL_NVIC_EnableIRQ + 28
        0x0800095c:    f000031f    ....    AND      r3,r0,#0x1f
        0x08000960:    2201        ."      MOVS     r2,#1
        0x08000962:    409a        .@      LSLS     r2,r2,r3
        0x08000964:    0943        C.      LSRS     r3,r0,#5
        0x08000966:    009b        ..      LSLS     r3,r3,#2
        0x08000968:    f10323e0    ...#    ADD      r3,r3,#0xe000e000
        0x0800096c:    f8c32100    ...!    STR      r2,[r3,#0x100]
        0x08000970:    bf00        ..      NOP      
        0x08000972:    4770        pG      BX       lr
    i.HAL_NVIC_SetPriority
    HAL_NVIC_SetPriority
        0x08000974:    e92d5ff0    -.._    PUSH     {r4-r12,lr}
        0x08000978:    4680        .F      MOV      r8,r0
        0x0800097a:    460d        .F      MOV      r5,r1
        0x0800097c:    4616        .F      MOV      r6,r2
        0x0800097e:    2700        .'      MOVS     r7,#0
        0x08000980:    f000fb16    ....    BL       __NVIC_GetPriorityGrouping ; 0x8000fb0
        0x08000984:    4607        .F      MOV      r7,r0
        0x08000986:    4639        9F      MOV      r1,r7
        0x08000988:    462a        *F      MOV      r2,r5
        0x0800098a:    4633        3F      MOV      r3,r6
        0x0800098c:    f0010007    ....    AND      r0,r1,#7
        0x08000990:    f1c00a07    ....    RSB      r10,r0,#7
        0x08000994:    f1ba0f04    ....    CMP      r10,#4
        0x08000998:    d902        ..      BLS      0x80009a0 ; HAL_NVIC_SetPriority + 44
        0x0800099a:    f04f0a04    O...    MOV      r10,#4
        0x0800099e:    e001        ..      B        0x80009a4 ; HAL_NVIC_SetPriority + 48
        0x080009a0:    f1c00a07    ....    RSB      r10,r0,#7
        0x080009a4:    46d1        .F      MOV      r9,r10
        0x080009a6:    f1000a04    ....    ADD      r10,r0,#4
        0x080009aa:    f1ba0f07    ....    CMP      r10,#7
        0x080009ae:    d202        ..      BCS      0x80009b6 ; HAL_NVIC_SetPriority + 66
        0x080009b0:    f04f0a00    O...    MOV      r10,#0
        0x080009b4:    e001        ..      B        0x80009ba ; HAL_NVIC_SetPriority + 70
        0x080009b6:    f1a00a03    ....    SUB      r10,r0,#3
        0x080009ba:    46d4        .F      MOV      r12,r10
        0x080009bc:    f04f0a01    O...    MOV      r10,#1
        0x080009c0:    fa0afa09    ....    LSL      r10,r10,r9
        0x080009c4:    f1aa0a01    ....    SUB      r10,r10,#1
        0x080009c8:    ea0a0a02    ....    AND      r10,r10,r2
        0x080009cc:    fa0afa0c    ....    LSL      r10,r10,r12
        0x080009d0:    f04f0b01    O...    MOV      r11,#1
        0x080009d4:    fa0bfb0c    ....    LSL      r11,r11,r12
        0x080009d8:    f1ab0b01    ....    SUB      r11,r11,#1
        0x080009dc:    ea0b0b03    ....    AND      r11,r11,r3
        0x080009e0:    ea4a040b    J...    ORR      r4,r10,r11
        0x080009e4:    4621        !F      MOV      r1,r4
        0x080009e6:    4640        @F      MOV      r0,r8
        0x080009e8:    f000faea    ....    BL       __NVIC_SetPriority ; 0x8000fc0
        0x080009ec:    e8bd9ff0    ....    POP      {r4-r12,pc}
    i.HAL_NVIC_SetPriorityGrouping
    HAL_NVIC_SetPriorityGrouping
        0x080009f0:    bf00        ..      NOP      
        0x080009f2:    f0000207    ....    AND      r2,r0,#7
        0x080009f6:    4b06        .K      LDR      r3,[pc,#24] ; [0x8000a10] = 0xe000ed0c
        0x080009f8:    6819        .h      LDR      r1,[r3,#0]
        0x080009fa:    f64f03ff    O...    MOV      r3,#0xf8ff
        0x080009fe:    4019        .@      ANDS     r1,r1,r3
        0x08000a00:    4b04        .K      LDR      r3,[pc,#16] ; [0x8000a14] = 0x5fa0000
        0x08000a02:    430b        .C      ORRS     r3,r3,r1
        0x08000a04:    ea432102    C..!    ORR      r1,r3,r2,LSL #8
        0x08000a08:    4b01        .K      LDR      r3,[pc,#4] ; [0x8000a10] = 0xe000ed0c
        0x08000a0a:    6019        .`      STR      r1,[r3,#0]
        0x08000a0c:    bf00        ..      NOP      
        0x08000a0e:    4770        pG      BX       lr
    $d
        0x08000a10:    e000ed0c    ....    DCD    3758157068
        0x08000a14:    05fa0000    ....    DCD    100270080
    $t
    i.HAL_RCC_GetClockConfig
    HAL_RCC_GetClockConfig
        0x08000a18:    220f        ."      MOVS     r2,#0xf
        0x08000a1a:    6002        .`      STR      r2,[r0,#0]
        0x08000a1c:    4a0d        .J      LDR      r2,[pc,#52] ; [0x8000a54] = 0x40023808
        0x08000a1e:    6812        .h      LDR      r2,[r2,#0]
        0x08000a20:    f0020203    ....    AND      r2,r2,#3
        0x08000a24:    6042        B`      STR      r2,[r0,#4]
        0x08000a26:    4a0b        .J      LDR      r2,[pc,#44] ; [0x8000a54] = 0x40023808
        0x08000a28:    6812        .h      LDR      r2,[r2,#0]
        0x08000a2a:    f00202f0    ....    AND      r2,r2,#0xf0
        0x08000a2e:    6082        .`      STR      r2,[r0,#8]
        0x08000a30:    4a08        .J      LDR      r2,[pc,#32] ; [0x8000a54] = 0x40023808
        0x08000a32:    6812        .h      LDR      r2,[r2,#0]
        0x08000a34:    f40252e0    ...R    AND      r2,r2,#0x1c00
        0x08000a38:    60c2        .`      STR      r2,[r0,#0xc]
        0x08000a3a:    4a06        .J      LDR      r2,[pc,#24] ; [0x8000a54] = 0x40023808
        0x08000a3c:    6812        .h      LDR      r2,[r2,#0]
        0x08000a3e:    f4024260    ..`B    AND      r2,r2,#0xe000
        0x08000a42:    08d2        ..      LSRS     r2,r2,#3
        0x08000a44:    6102        .a      STR      r2,[r0,#0x10]
        0x08000a46:    4a04        .J      LDR      r2,[pc,#16] ; [0x8000a58] = 0x40023c00
        0x08000a48:    6812        .h      LDR      r2,[r2,#0]
        0x08000a4a:    f0020207    ....    AND      r2,r2,#7
        0x08000a4e:    600a        .`      STR      r2,[r1,#0]
        0x08000a50:    4770        pG      BX       lr
    $d
        0x08000a52:    0000        ..      DCW    0
        0x08000a54:    40023808    .8.@    DCD    1073887240
        0x08000a58:    40023c00    .<.@    DCD    1073888256
    $t
    i.HAL_RCC_GetHCLKFreq
    HAL_RCC_GetHCLKFreq
        0x08000a5c:    4801        .H      LDR      r0,[pc,#4] ; [0x8000a64] = 0x20000010
        0x08000a5e:    6800        .h      LDR      r0,[r0,#0]
        0x08000a60:    4770        pG      BX       lr
    $d
        0x08000a62:    0000        ..      DCW    0
        0x08000a64:    20000010    ...     DCD    536870928
    $t
    i.HAL_RCC_GetPCLK2Freq
    HAL_RCC_GetPCLK2Freq
        0x08000a68:    b500        ..      PUSH     {lr}
        0x08000a6a:    f7fffff7    ....    BL       HAL_RCC_GetHCLKFreq ; 0x8000a5c
        0x08000a6e:    4904        .I      LDR      r1,[pc,#16] ; [0x8000a80] = 0x40023808
        0x08000a70:    6809        .h      LDR      r1,[r1,#0]
        0x08000a72:    f3c13142    ..B1    UBFX     r1,r1,#13,#3
        0x08000a76:    4a03        .J      LDR      r2,[pc,#12] ; [0x8000a84] = 0x8001c90
        0x08000a78:    5c51        Q\      LDRB     r1,[r2,r1]
        0x08000a7a:    40c8        .@      LSRS     r0,r0,r1
        0x08000a7c:    bd00        ..      POP      {pc}
    $d
        0x08000a7e:    0000        ..      DCW    0
        0x08000a80:    40023808    .8.@    DCD    1073887240
        0x08000a84:    08001c90    ....    DCD    134225040
    $t
    i.HAL_TIMEx_BreakCallback
    HAL_TIMEx_BreakCallback
        0x08000a88:    4770        pG      BX       lr
    i.HAL_TIMEx_CommutCallback
    HAL_TIMEx_CommutCallback
        0x08000a8a:    4770        pG      BX       lr
    i.HAL_TIM_Base_Init
    HAL_TIM_Base_Init
        0x08000a8c:    b510        ..      PUSH     {r4,lr}
        0x08000a8e:    4604        .F      MOV      r4,r0
        0x08000a90:    b90c        ..      CBNZ     r4,0x8000a96 ; HAL_TIM_Base_Init + 10
        0x08000a92:    2001        .       MOVS     r0,#1
        0x08000a94:    bd10        ..      POP      {r4,pc}
        0x08000a96:    f894003d    ..=.    LDRB     r0,[r4,#0x3d]
        0x08000a9a:    b928        (.      CBNZ     r0,0x8000aa8 ; HAL_TIM_Base_Init + 28
        0x08000a9c:    2000        .       MOVS     r0,#0
        0x08000a9e:    f884003c    ..<.    STRB     r0,[r4,#0x3c]
        0x08000aa2:    4620         F      MOV      r0,r4
        0x08000aa4:    f000f825    ..%.    BL       HAL_TIM_Base_MspInit ; 0x8000af2
        0x08000aa8:    2002        .       MOVS     r0,#2
        0x08000aaa:    f884003d    ..=.    STRB     r0,[r4,#0x3d]
        0x08000aae:    1d21        !.      ADDS     r1,r4,#4
        0x08000ab0:    6820         h      LDR      r0,[r4,#0]
        0x08000ab2:    f000f9cf    ....    BL       TIM_Base_SetConfig ; 0x8000e54
        0x08000ab6:    2001        .       MOVS     r0,#1
        0x08000ab8:    f8840046    ..F.    STRB     r0,[r4,#0x46]
        0x08000abc:    bf00        ..      NOP      
        0x08000abe:    f884003e    ..>.    STRB     r0,[r4,#0x3e]
        0x08000ac2:    2101        .!      MOVS     r1,#1
        0x08000ac4:    203f        ?       MOVS     r0,#0x3f
        0x08000ac6:    5501        .U      STRB     r1,[r0,r4]
        0x08000ac8:    2040        @       MOVS     r0,#0x40
        0x08000aca:    5501        .U      STRB     r1,[r0,r4]
        0x08000acc:    2041        A       MOVS     r0,#0x41
        0x08000ace:    5501        .U      STRB     r1,[r0,r4]
        0x08000ad0:    bf00        ..      NOP      
        0x08000ad2:    bf00        ..      NOP      
        0x08000ad4:    2001        .       MOVS     r0,#1
        0x08000ad6:    f8840042    ..B.    STRB     r0,[r4,#0x42]
        0x08000ada:    2043        C       MOVS     r0,#0x43
        0x08000adc:    5501        .U      STRB     r1,[r0,r4]
        0x08000ade:    2044        D       MOVS     r0,#0x44
        0x08000ae0:    5501        .U      STRB     r1,[r0,r4]
        0x08000ae2:    2045        E       MOVS     r0,#0x45
        0x08000ae4:    5501        .U      STRB     r1,[r0,r4]
        0x08000ae6:    bf00        ..      NOP      
        0x08000ae8:    2001        .       MOVS     r0,#1
        0x08000aea:    f884003d    ..=.    STRB     r0,[r4,#0x3d]
        0x08000aee:    2000        .       MOVS     r0,#0
        0x08000af0:    e7d0        ..      B        0x8000a94 ; HAL_TIM_Base_Init + 8
    i.HAL_TIM_Base_MspInit
    HAL_TIM_Base_MspInit
        0x08000af2:    4770        pG      BX       lr
    i.HAL_TIM_Base_Start_IT
    HAL_TIM_Base_Start_IT
        0x08000af4:    4601        .F      MOV      r1,r0
        0x08000af6:    f891003d    ..=.    LDRB     r0,[r1,#0x3d]
        0x08000afa:    2801        .(      CMP      r0,#1
        0x08000afc:    d001        ..      BEQ      0x8000b02 ; HAL_TIM_Base_Start_IT + 14
        0x08000afe:    2001        .       MOVS     r0,#1
        0x08000b00:    4770        pG      BX       lr
        0x08000b02:    2002        .       MOVS     r0,#2
        0x08000b04:    f881003d    ..=.    STRB     r0,[r1,#0x3d]
        0x08000b08:    6808        .h      LDR      r0,[r1,#0]
        0x08000b0a:    68c0        .h      LDR      r0,[r0,#0xc]
        0x08000b0c:    f0400001    @...    ORR      r0,r0,#1
        0x08000b10:    680b        .h      LDR      r3,[r1,#0]
        0x08000b12:    60d8        .`      STR      r0,[r3,#0xc]
        0x08000b14:    4b16        .K      LDR      r3,[pc,#88] ; [0x8000b70] = 0x40010000
        0x08000b16:    6808        .h      LDR      r0,[r1,#0]
        0x08000b18:    4298        .B      CMP      r0,r3
        0x08000b1a:    d013        ..      BEQ      0x8000b44 ; HAL_TIM_Base_Start_IT + 80
        0x08000b1c:    6808        .h      LDR      r0,[r1,#0]
        0x08000b1e:    f1b04f80    ...O    CMP      r0,#0x40000000
        0x08000b22:    d00f        ..      BEQ      0x8000b44 ; HAL_TIM_Base_Start_IT + 80
        0x08000b24:    4b13        .K      LDR      r3,[pc,#76] ; [0x8000b74] = 0x40000400
        0x08000b26:    6808        .h      LDR      r0,[r1,#0]
        0x08000b28:    4298        .B      CMP      r0,r3
        0x08000b2a:    d00b        ..      BEQ      0x8000b44 ; HAL_TIM_Base_Start_IT + 80
        0x08000b2c:    4b12        .K      LDR      r3,[pc,#72] ; [0x8000b78] = 0x40000800
        0x08000b2e:    6808        .h      LDR      r0,[r1,#0]
        0x08000b30:    4298        .B      CMP      r0,r3
        0x08000b32:    d007        ..      BEQ      0x8000b44 ; HAL_TIM_Base_Start_IT + 80
        0x08000b34:    4b11        .K      LDR      r3,[pc,#68] ; [0x8000b7c] = 0x40000c00
        0x08000b36:    6808        .h      LDR      r0,[r1,#0]
        0x08000b38:    4298        .B      CMP      r0,r3
        0x08000b3a:    d003        ..      BEQ      0x8000b44 ; HAL_TIM_Base_Start_IT + 80
        0x08000b3c:    4b10        .K      LDR      r3,[pc,#64] ; [0x8000b80] = 0x40014000
        0x08000b3e:    6808        .h      LDR      r0,[r1,#0]
        0x08000b40:    4298        .B      CMP      r0,r3
        0x08000b42:    d10c        ..      BNE      0x8000b5e ; HAL_TIM_Base_Start_IT + 106
        0x08000b44:    6808        .h      LDR      r0,[r1,#0]
        0x08000b46:    6880        .h      LDR      r0,[r0,#8]
        0x08000b48:    f0000207    ....    AND      r2,r0,#7
        0x08000b4c:    2a06        .*      CMP      r2,#6
        0x08000b4e:    d00c        ..      BEQ      0x8000b6a ; HAL_TIM_Base_Start_IT + 118
        0x08000b50:    6808        .h      LDR      r0,[r1,#0]
        0x08000b52:    6800        .h      LDR      r0,[r0,#0]
        0x08000b54:    f0400001    @...    ORR      r0,r0,#1
        0x08000b58:    680b        .h      LDR      r3,[r1,#0]
        0x08000b5a:    6018        .`      STR      r0,[r3,#0]
        0x08000b5c:    e005        ..      B        0x8000b6a ; HAL_TIM_Base_Start_IT + 118
        0x08000b5e:    6808        .h      LDR      r0,[r1,#0]
        0x08000b60:    6800        .h      LDR      r0,[r0,#0]
        0x08000b62:    f0400001    @...    ORR      r0,r0,#1
        0x08000b66:    680b        .h      LDR      r3,[r1,#0]
        0x08000b68:    6018        .`      STR      r0,[r3,#0]
        0x08000b6a:    2000        .       MOVS     r0,#0
        0x08000b6c:    e7c8        ..      B        0x8000b00 ; HAL_TIM_Base_Start_IT + 12
    $d
        0x08000b6e:    0000        ..      DCW    0
        0x08000b70:    40010000    ...@    DCD    1073807360
        0x08000b74:    40000400    ...@    DCD    1073742848
        0x08000b78:    40000800    ...@    DCD    1073743872
        0x08000b7c:    40000c00    ...@    DCD    1073744896
        0x08000b80:    40014000    .@.@    DCD    1073823744
    $t
    i.HAL_TIM_IC_CaptureCallback
    HAL_TIM_IC_CaptureCallback
        0x08000b84:    4770        pG      BX       lr
    i.HAL_TIM_IRQHandler
    HAL_TIM_IRQHandler
        0x08000b86:    b510        ..      PUSH     {r4,lr}
        0x08000b88:    4604        .F      MOV      r4,r0
        0x08000b8a:    6820         h      LDR      r0,[r4,#0]
        0x08000b8c:    6900        .i      LDR      r0,[r0,#0x10]
        0x08000b8e:    f3c00040    ..@.    UBFX     r0,r0,#1,#1
        0x08000b92:    b1d8        ..      CBZ      r0,0x8000bcc ; HAL_TIM_IRQHandler + 70
        0x08000b94:    6820         h      LDR      r0,[r4,#0]
        0x08000b96:    68c0        .h      LDR      r0,[r0,#0xc]
        0x08000b98:    f3c00040    ..@.    UBFX     r0,r0,#1,#1
        0x08000b9c:    b1b0        ..      CBZ      r0,0x8000bcc ; HAL_TIM_IRQHandler + 70
        0x08000b9e:    f06f0002    o...    MVN      r0,#2
        0x08000ba2:    6821        !h      LDR      r1,[r4,#0]
        0x08000ba4:    6108        .a      STR      r0,[r1,#0x10]
        0x08000ba6:    2001        .       MOVS     r0,#1
        0x08000ba8:    7720         w      STRB     r0,[r4,#0x1c]
        0x08000baa:    6820         h      LDR      r0,[r4,#0]
        0x08000bac:    6980        .i      LDR      r0,[r0,#0x18]
        0x08000bae:    f0000003    ....    AND      r0,r0,#3
        0x08000bb2:    b118        ..      CBZ      r0,0x8000bbc ; HAL_TIM_IRQHandler + 54
        0x08000bb4:    4620         F      MOV      r0,r4
        0x08000bb6:    f7ffffe5    ....    BL       HAL_TIM_IC_CaptureCallback ; 0x8000b84
        0x08000bba:    e005        ..      B        0x8000bc8 ; HAL_TIM_IRQHandler + 66
        0x08000bbc:    4620         F      MOV      r0,r4
        0x08000bbe:    f000f8ad    ....    BL       HAL_TIM_OC_DelayElapsedCallback ; 0x8000d1c
        0x08000bc2:    4620         F      MOV      r0,r4
        0x08000bc4:    f000f8ab    ....    BL       HAL_TIM_PWM_PulseFinishedCallback ; 0x8000d1e
        0x08000bc8:    2000        .       MOVS     r0,#0
        0x08000bca:    7720         w      STRB     r0,[r4,#0x1c]
        0x08000bcc:    6820         h      LDR      r0,[r4,#0]
        0x08000bce:    6900        .i      LDR      r0,[r0,#0x10]
        0x08000bd0:    f3c00080    ....    UBFX     r0,r0,#2,#1
        0x08000bd4:    b1d8        ..      CBZ      r0,0x8000c0e ; HAL_TIM_IRQHandler + 136
        0x08000bd6:    6820         h      LDR      r0,[r4,#0]
        0x08000bd8:    68c0        .h      LDR      r0,[r0,#0xc]
        0x08000bda:    f3c00080    ....    UBFX     r0,r0,#2,#1
        0x08000bde:    b1b0        ..      CBZ      r0,0x8000c0e ; HAL_TIM_IRQHandler + 136
        0x08000be0:    f06f0004    o...    MVN      r0,#4
        0x08000be4:    6821        !h      LDR      r1,[r4,#0]
        0x08000be6:    6108        .a      STR      r0,[r1,#0x10]
        0x08000be8:    2002        .       MOVS     r0,#2
        0x08000bea:    7720         w      STRB     r0,[r4,#0x1c]
        0x08000bec:    6820         h      LDR      r0,[r4,#0]
        0x08000bee:    6980        .i      LDR      r0,[r0,#0x18]
        0x08000bf0:    f4007040    ..@p    AND      r0,r0,#0x300
        0x08000bf4:    b118        ..      CBZ      r0,0x8000bfe ; HAL_TIM_IRQHandler + 120
        0x08000bf6:    4620         F      MOV      r0,r4
        0x08000bf8:    f7ffffc4    ....    BL       HAL_TIM_IC_CaptureCallback ; 0x8000b84
        0x08000bfc:    e005        ..      B        0x8000c0a ; HAL_TIM_IRQHandler + 132
        0x08000bfe:    4620         F      MOV      r0,r4
        0x08000c00:    f000f88c    ....    BL       HAL_TIM_OC_DelayElapsedCallback ; 0x8000d1c
        0x08000c04:    4620         F      MOV      r0,r4
        0x08000c06:    f000f88a    ....    BL       HAL_TIM_PWM_PulseFinishedCallback ; 0x8000d1e
        0x08000c0a:    2000        .       MOVS     r0,#0
        0x08000c0c:    7720         w      STRB     r0,[r4,#0x1c]
        0x08000c0e:    6820         h      LDR      r0,[r4,#0]
        0x08000c10:    6900        .i      LDR      r0,[r0,#0x10]
        0x08000c12:    f3c000c0    ....    UBFX     r0,r0,#3,#1
        0x08000c16:    b1d8        ..      CBZ      r0,0x8000c50 ; HAL_TIM_IRQHandler + 202
        0x08000c18:    6820         h      LDR      r0,[r4,#0]
        0x08000c1a:    68c0        .h      LDR      r0,[r0,#0xc]
        0x08000c1c:    f3c000c0    ....    UBFX     r0,r0,#3,#1
        0x08000c20:    b1b0        ..      CBZ      r0,0x8000c50 ; HAL_TIM_IRQHandler + 202
        0x08000c22:    f06f0008    o...    MVN      r0,#8
        0x08000c26:    6821        !h      LDR      r1,[r4,#0]
        0x08000c28:    6108        .a      STR      r0,[r1,#0x10]
        0x08000c2a:    2004        .       MOVS     r0,#4
        0x08000c2c:    7720         w      STRB     r0,[r4,#0x1c]
        0x08000c2e:    6820         h      LDR      r0,[r4,#0]
        0x08000c30:    69c0        .i      LDR      r0,[r0,#0x1c]
        0x08000c32:    f0000003    ....    AND      r0,r0,#3
        0x08000c36:    b118        ..      CBZ      r0,0x8000c40 ; HAL_TIM_IRQHandler + 186
        0x08000c38:    4620         F      MOV      r0,r4
        0x08000c3a:    f7ffffa3    ....    BL       HAL_TIM_IC_CaptureCallback ; 0x8000b84
        0x08000c3e:    e005        ..      B        0x8000c4c ; HAL_TIM_IRQHandler + 198
        0x08000c40:    4620         F      MOV      r0,r4
        0x08000c42:    f000f86b    ..k.    BL       HAL_TIM_OC_DelayElapsedCallback ; 0x8000d1c
        0x08000c46:    4620         F      MOV      r0,r4
        0x08000c48:    f000f869    ..i.    BL       HAL_TIM_PWM_PulseFinishedCallback ; 0x8000d1e
        0x08000c4c:    2000        .       MOVS     r0,#0
        0x08000c4e:    7720         w      STRB     r0,[r4,#0x1c]
        0x08000c50:    6820         h      LDR      r0,[r4,#0]
        0x08000c52:    6900        .i      LDR      r0,[r0,#0x10]
        0x08000c54:    f3c01000    ....    UBFX     r0,r0,#4,#1
        0x08000c58:    b1d8        ..      CBZ      r0,0x8000c92 ; HAL_TIM_IRQHandler + 268
        0x08000c5a:    6820         h      LDR      r0,[r4,#0]
        0x08000c5c:    68c0        .h      LDR      r0,[r0,#0xc]
        0x08000c5e:    f3c01000    ....    UBFX     r0,r0,#4,#1
        0x08000c62:    b1b0        ..      CBZ      r0,0x8000c92 ; HAL_TIM_IRQHandler + 268
        0x08000c64:    f06f0010    o...    MVN      r0,#0x10
        0x08000c68:    6821        !h      LDR      r1,[r4,#0]
        0x08000c6a:    6108        .a      STR      r0,[r1,#0x10]
        0x08000c6c:    2008        .       MOVS     r0,#8
        0x08000c6e:    7720         w      STRB     r0,[r4,#0x1c]
        0x08000c70:    6820         h      LDR      r0,[r4,#0]
        0x08000c72:    69c0        .i      LDR      r0,[r0,#0x1c]
        0x08000c74:    f4007040    ..@p    AND      r0,r0,#0x300
        0x08000c78:    b118        ..      CBZ      r0,0x8000c82 ; HAL_TIM_IRQHandler + 252
        0x08000c7a:    4620         F      MOV      r0,r4
        0x08000c7c:    f7ffff82    ....    BL       HAL_TIM_IC_CaptureCallback ; 0x8000b84
        0x08000c80:    e005        ..      B        0x8000c8e ; HAL_TIM_IRQHandler + 264
        0x08000c82:    4620         F      MOV      r0,r4
        0x08000c84:    f000f84a    ..J.    BL       HAL_TIM_OC_DelayElapsedCallback ; 0x8000d1c
        0x08000c88:    4620         F      MOV      r0,r4
        0x08000c8a:    f000f848    ..H.    BL       HAL_TIM_PWM_PulseFinishedCallback ; 0x8000d1e
        0x08000c8e:    2000        .       MOVS     r0,#0
        0x08000c90:    7720         w      STRB     r0,[r4,#0x1c]
        0x08000c92:    6820         h      LDR      r0,[r4,#0]
        0x08000c94:    6900        .i      LDR      r0,[r0,#0x10]
        0x08000c96:    f0000001    ....    AND      r0,r0,#1
        0x08000c9a:    b158        X.      CBZ      r0,0x8000cb4 ; HAL_TIM_IRQHandler + 302
        0x08000c9c:    6820         h      LDR      r0,[r4,#0]
        0x08000c9e:    68c0        .h      LDR      r0,[r0,#0xc]
        0x08000ca0:    f0000001    ....    AND      r0,r0,#1
        0x08000ca4:    b130        0.      CBZ      r0,0x8000cb4 ; HAL_TIM_IRQHandler + 302
        0x08000ca6:    f06f0001    o...    MVN      r0,#1
        0x08000caa:    6821        !h      LDR      r1,[r4,#0]
        0x08000cac:    6108        .a      STR      r0,[r1,#0x10]
        0x08000cae:    4620         F      MOV      r0,r4
        0x08000cb0:    f000f836    ..6.    BL       HAL_TIM_PeriodElapsedCallback ; 0x8000d20
        0x08000cb4:    6820         h      LDR      r0,[r4,#0]
        0x08000cb6:    6900        .i      LDR      r0,[r0,#0x10]
        0x08000cb8:    f3c010c0    ....    UBFX     r0,r0,#7,#1
        0x08000cbc:    b158        X.      CBZ      r0,0x8000cd6 ; HAL_TIM_IRQHandler + 336
        0x08000cbe:    6820         h      LDR      r0,[r4,#0]
        0x08000cc0:    68c0        .h      LDR      r0,[r0,#0xc]
        0x08000cc2:    f3c010c0    ....    UBFX     r0,r0,#7,#1
        0x08000cc6:    b130        0.      CBZ      r0,0x8000cd6 ; HAL_TIM_IRQHandler + 336
        0x08000cc8:    f06f0080    o...    MVN      r0,#0x80
        0x08000ccc:    6821        !h      LDR      r1,[r4,#0]
        0x08000cce:    6108        .a      STR      r0,[r1,#0x10]
        0x08000cd0:    4620         F      MOV      r0,r4
        0x08000cd2:    f7fffed9    ....    BL       HAL_TIMEx_BreakCallback ; 0x8000a88
        0x08000cd6:    6820         h      LDR      r0,[r4,#0]
        0x08000cd8:    6900        .i      LDR      r0,[r0,#0x10]
        0x08000cda:    f3c01080    ....    UBFX     r0,r0,#6,#1
        0x08000cde:    b158        X.      CBZ      r0,0x8000cf8 ; HAL_TIM_IRQHandler + 370
        0x08000ce0:    6820         h      LDR      r0,[r4,#0]
        0x08000ce2:    68c0        .h      LDR      r0,[r0,#0xc]
        0x08000ce4:    f3c01080    ....    UBFX     r0,r0,#6,#1
        0x08000ce8:    b130        0.      CBZ      r0,0x8000cf8 ; HAL_TIM_IRQHandler + 370
        0x08000cea:    f06f0040    o.@.    MVN      r0,#0x40
        0x08000cee:    6821        !h      LDR      r1,[r4,#0]
        0x08000cf0:    6108        .a      STR      r0,[r1,#0x10]
        0x08000cf2:    4620         F      MOV      r0,r4
        0x08000cf4:    f000f820    .. .    BL       HAL_TIM_TriggerCallback ; 0x8000d38
        0x08000cf8:    6820         h      LDR      r0,[r4,#0]
        0x08000cfa:    6900        .i      LDR      r0,[r0,#0x10]
        0x08000cfc:    f3c01040    ..@.    UBFX     r0,r0,#5,#1
        0x08000d00:    b158        X.      CBZ      r0,0x8000d1a ; HAL_TIM_IRQHandler + 404
        0x08000d02:    6820         h      LDR      r0,[r4,#0]
        0x08000d04:    68c0        .h      LDR      r0,[r0,#0xc]
        0x08000d06:    f3c01040    ..@.    UBFX     r0,r0,#5,#1
        0x08000d0a:    b130        0.      CBZ      r0,0x8000d1a ; HAL_TIM_IRQHandler + 404
        0x08000d0c:    f06f0020    o. .    MVN      r0,#0x20
        0x08000d10:    6821        !h      LDR      r1,[r4,#0]
        0x08000d12:    6108        .a      STR      r0,[r1,#0x10]
        0x08000d14:    4620         F      MOV      r0,r4
        0x08000d16:    f7fffeb8    ....    BL       HAL_TIMEx_CommutCallback ; 0x8000a8a
        0x08000d1a:    bd10        ..      POP      {r4,pc}
    i.HAL_TIM_OC_DelayElapsedCallback
    HAL_TIM_OC_DelayElapsedCallback
        0x08000d1c:    4770        pG      BX       lr
    i.HAL_TIM_PWM_PulseFinishedCallback
    HAL_TIM_PWM_PulseFinishedCallback
        0x08000d1e:    4770        pG      BX       lr
    i.HAL_TIM_PeriodElapsedCallback
    HAL_TIM_PeriodElapsedCallback
        0x08000d20:    b510        ..      PUSH     {r4,lr}
        0x08000d22:    4604        .F      MOV      r4,r0
        0x08000d24:    4903        .I      LDR      r1,[pc,#12] ; [0x8000d34] = 0x40010000
        0x08000d26:    6820         h      LDR      r0,[r4,#0]
        0x08000d28:    4288        .B      CMP      r0,r1
        0x08000d2a:    d101        ..      BNE      0x8000d30 ; HAL_TIM_PeriodElapsedCallback + 16
        0x08000d2c:    f7fffd6e    ..n.    BL       HAL_IncTick ; 0x800080c
        0x08000d30:    bd10        ..      POP      {r4,pc}
    $d
        0x08000d32:    0000        ..      DCW    0
        0x08000d34:    40010000    ...@    DCD    1073807360
    $t
    i.HAL_TIM_TriggerCallback
    HAL_TIM_TriggerCallback
        0x08000d38:    4770        pG      BX       lr
    i.HAL_UART_Transmit
    HAL_UART_Transmit
        0x08000d3a:    e92d4ff8    -..O    PUSH     {r3-r11,lr}
        0x08000d3e:    4604        .F      MOV      r4,r0
        0x08000d40:    460e        .F      MOV      r6,r1
        0x08000d42:    4617        .F      MOV      r7,r2
        0x08000d44:    4699        .F      MOV      r9,r3
        0x08000d46:    f04f0a00    O...    MOV      r10,#0
        0x08000d4a:    f894003d    ..=.    LDRB     r0,[r4,#0x3d]
        0x08000d4e:    2820         (      CMP      r0,#0x20
        0x08000d50:    d15a        Z.      BNE      0x8000e08 ; HAL_UART_Transmit + 206
        0x08000d52:    b106        ..      CBZ      r6,0x8000d56 ; HAL_UART_Transmit + 28
        0x08000d54:    b917        ..      CBNZ     r7,0x8000d5c ; HAL_UART_Transmit + 34
        0x08000d56:    2001        .       MOVS     r0,#1
        0x08000d58:    e8bd8ff8    ....    POP      {r3-r11,pc}
        0x08000d5c:    bf00        ..      NOP      
        0x08000d5e:    f894003c    ..<.    LDRB     r0,[r4,#0x3c]
        0x08000d62:    2801        .(      CMP      r0,#1
        0x08000d64:    d101        ..      BNE      0x8000d6a ; HAL_UART_Transmit + 48
        0x08000d66:    2002        .       MOVS     r0,#2
        0x08000d68:    e7f6        ..      B        0x8000d58 ; HAL_UART_Transmit + 30
        0x08000d6a:    2001        .       MOVS     r0,#1
        0x08000d6c:    f884003c    ..<.    STRB     r0,[r4,#0x3c]
        0x08000d70:    bf00        ..      NOP      
        0x08000d72:    2000        .       MOVS     r0,#0
        0x08000d74:    6420         d      STR      r0,[r4,#0x40]
        0x08000d76:    2021        !       MOVS     r0,#0x21
        0x08000d78:    f884003d    ..=.    STRB     r0,[r4,#0x3d]
        0x08000d7c:    f7fffd40    ..@.    BL       HAL_GetTick ; 0x8000800
        0x08000d80:    4682        .F      MOV      r10,r0
        0x08000d82:    84a7        ..      STRH     r7,[r4,#0x24]
        0x08000d84:    84e7        ..      STRH     r7,[r4,#0x26]
        0x08000d86:    68a0        .h      LDR      r0,[r4,#8]
        0x08000d88:    f5b05f80    ..._    CMP      r0,#0x1000
        0x08000d8c:    d104        ..      BNE      0x8000d98 ; HAL_UART_Transmit + 94
        0x08000d8e:    6920         i      LDR      r0,[r4,#0x10]
        0x08000d90:    b910        ..      CBNZ     r0,0x8000d98 ; HAL_UART_Transmit + 94
        0x08000d92:    2500        .%      MOVS     r5,#0
        0x08000d94:    46b0        .F      MOV      r8,r6
        0x08000d96:    e002        ..      B        0x8000d9e ; HAL_UART_Transmit + 100
        0x08000d98:    4635        5F      MOV      r5,r6
        0x08000d9a:    f04f0800    O...    MOV      r8,#0
        0x08000d9e:    bf00        ..      NOP      
        0x08000da0:    2000        .       MOVS     r0,#0
        0x08000da2:    f884003c    ..<.    STRB     r0,[r4,#0x3c]
        0x08000da6:    bf00        ..      NOP      
        0x08000da8:    e01b        ..      B        0x8000de2 ; HAL_UART_Transmit + 168
        0x08000daa:    4653        SF      MOV      r3,r10
        0x08000dac:    2200        ."      MOVS     r2,#0
        0x08000dae:    2180        .!      MOVS     r1,#0x80
        0x08000db0:    4620         F      MOV      r0,r4
        0x08000db2:    f8cd9000    ....    STR      r9,[sp,#0]
        0x08000db6:    f000f89f    ....    BL       UART_WaitOnFlagUntilTimeout ; 0x8000ef8
        0x08000dba:    b108        ..      CBZ      r0,0x8000dc0 ; HAL_UART_Transmit + 134
        0x08000dbc:    2003        .       MOVS     r0,#3
        0x08000dbe:    e7cb        ..      B        0x8000d58 ; HAL_UART_Transmit + 30
        0x08000dc0:    b945        E.      CBNZ     r5,0x8000dd4 ; HAL_UART_Transmit + 154
        0x08000dc2:    f8b80000    ....    LDRH     r0,[r8,#0]
        0x08000dc6:    f3c00008    ....    UBFX     r0,r0,#0,#9
        0x08000dca:    6821        !h      LDR      r1,[r4,#0]
        0x08000dcc:    6048        H`      STR      r0,[r1,#4]
        0x08000dce:    f1080802    ....    ADD      r8,r8,#2
        0x08000dd2:    e003        ..      B        0x8000ddc ; HAL_UART_Transmit + 162
        0x08000dd4:    7828        (x      LDRB     r0,[r5,#0]
        0x08000dd6:    6821        !h      LDR      r1,[r4,#0]
        0x08000dd8:    6048        H`      STR      r0,[r1,#4]
        0x08000dda:    1c6d        m.      ADDS     r5,r5,#1
        0x08000ddc:    8ce0        ..      LDRH     r0,[r4,#0x26]
        0x08000dde:    1e40        @.      SUBS     r0,r0,#1
        0x08000de0:    84e0        ..      STRH     r0,[r4,#0x26]
        0x08000de2:    8ce0        ..      LDRH     r0,[r4,#0x26]
        0x08000de4:    2800        .(      CMP      r0,#0
        0x08000de6:    d1e0        ..      BNE      0x8000daa ; HAL_UART_Transmit + 112
        0x08000de8:    4653        SF      MOV      r3,r10
        0x08000dea:    2200        ."      MOVS     r2,#0
        0x08000dec:    2140        @!      MOVS     r1,#0x40
        0x08000dee:    4620         F      MOV      r0,r4
        0x08000df0:    f8cd9000    ....    STR      r9,[sp,#0]
        0x08000df4:    f000f880    ....    BL       UART_WaitOnFlagUntilTimeout ; 0x8000ef8
        0x08000df8:    b108        ..      CBZ      r0,0x8000dfe ; HAL_UART_Transmit + 196
        0x08000dfa:    2003        .       MOVS     r0,#3
        0x08000dfc:    e7ac        ..      B        0x8000d58 ; HAL_UART_Transmit + 30
        0x08000dfe:    2020                MOVS     r0,#0x20
        0x08000e00:    f884003d    ..=.    STRB     r0,[r4,#0x3d]
        0x08000e04:    2000        .       MOVS     r0,#0
        0x08000e06:    e7a7        ..      B        0x8000d58 ; HAL_UART_Transmit + 30
        0x08000e08:    2002        .       MOVS     r0,#2
        0x08000e0a:    e7a5        ..      B        0x8000d58 ; HAL_UART_Transmit + 30
    i.HardFault_Handler
    HardFault_Handler
        0x08000e0c:    bf00        ..      NOP      
        0x08000e0e:    e7fe        ..      B        0x8000e0e ; HardFault_Handler + 2
    i.MemManage_Handler
    MemManage_Handler
        0x08000e10:    bf00        ..      NOP      
        0x08000e12:    e7fe        ..      B        0x8000e12 ; MemManage_Handler + 2
    i.NMI_Handler
    NMI_Handler
        0x08000e14:    bf00        ..      NOP      
        0x08000e16:    e7fe        ..      B        0x8000e16 ; NMI_Handler + 2
    i.SysTick_Handler
    SysTick_Handler
        0x08000e18:    b510        ..      PUSH     {r4,lr}
        0x08000e1a:    f04f20e0    O..     MOV      r0,#0xe000e000
        0x08000e1e:    6900        .i      LDR      r0,[r0,#0x10]
        0x08000e20:    f000fe7c    ..|.    BL       xTaskGetSchedulerState ; 0x8001b1c
        0x08000e24:    2801        .(      CMP      r0,#1
        0x08000e26:    d001        ..      BEQ      0x8000e2c ; SysTick_Handler + 20
        0x08000e28:    f000fe5e    ..^.    BL       xPortSysTickHandler ; 0x8001ae8
        0x08000e2c:    bd10        ..      POP      {r4,pc}
        0x08000e2e:    0000        ..      MOVS     r0,r0
    i.SystemInit
    SystemInit
        0x08000e30:    4803        .H      LDR      r0,[pc,#12] ; [0x8000e40] = 0xe000ed88
        0x08000e32:    6800        .h      LDR      r0,[r0,#0]
        0x08000e34:    f4400070    @.p.    ORR      r0,r0,#0xf00000
        0x08000e38:    4901        .I      LDR      r1,[pc,#4] ; [0x8000e40] = 0xe000ed88
        0x08000e3a:    6008        .`      STR      r0,[r1,#0]
        0x08000e3c:    4770        pG      BX       lr
    $d
        0x08000e3e:    0000        ..      DCW    0
        0x08000e40:    e000ed88    ....    DCD    3758157192
    $t
    i.TIM1_UP_TIM10_IRQHandler
    TIM1_UP_TIM10_IRQHandler
        0x08000e44:    b510        ..      PUSH     {r4,lr}
        0x08000e46:    4802        .H      LDR      r0,[pc,#8] ; [0x8000e50] = 0x20000098
        0x08000e48:    f7fffe9d    ....    BL       HAL_TIM_IRQHandler ; 0x8000b86
        0x08000e4c:    bd10        ..      POP      {r4,pc}
    $d
        0x08000e4e:    0000        ..      DCW    0
        0x08000e50:    20000098    ...     DCD    536871064
    $t
    i.TIM_Base_SetConfig
    TIM_Base_SetConfig
        0x08000e54:    b510        ..      PUSH     {r4,lr}
        0x08000e56:    6802        .h      LDR      r2,[r0,#0]
        0x08000e58:    4b20         K      LDR      r3,[pc,#128] ; [0x8000edc] = 0x40010000
        0x08000e5a:    4298        .B      CMP      r0,r3
        0x08000e5c:    d00b        ..      BEQ      0x8000e76 ; TIM_Base_SetConfig + 34
        0x08000e5e:    f1b04f80    ...O    CMP      r0,#0x40000000
        0x08000e62:    d008        ..      BEQ      0x8000e76 ; TIM_Base_SetConfig + 34
        0x08000e64:    4b1e        .K      LDR      r3,[pc,#120] ; [0x8000ee0] = 0x40000400
        0x08000e66:    4298        .B      CMP      r0,r3
        0x08000e68:    d005        ..      BEQ      0x8000e76 ; TIM_Base_SetConfig + 34
        0x08000e6a:    4b1e        .K      LDR      r3,[pc,#120] ; [0x8000ee4] = 0x40000800
        0x08000e6c:    4298        .B      CMP      r0,r3
        0x08000e6e:    d002        ..      BEQ      0x8000e76 ; TIM_Base_SetConfig + 34
        0x08000e70:    4b1d        .K      LDR      r3,[pc,#116] ; [0x8000ee8] = 0x40000c00
        0x08000e72:    4298        .B      CMP      r0,r3
        0x08000e74:    d103        ..      BNE      0x8000e7e ; TIM_Base_SetConfig + 42
        0x08000e76:    f0220270    ".p.    BIC      r2,r2,#0x70
        0x08000e7a:    684b        Kh      LDR      r3,[r1,#4]
        0x08000e7c:    431a        .C      ORRS     r2,r2,r3
        0x08000e7e:    4b17        .K      LDR      r3,[pc,#92] ; [0x8000edc] = 0x40010000
        0x08000e80:    4298        .B      CMP      r0,r3
        0x08000e82:    d014        ..      BEQ      0x8000eae ; TIM_Base_SetConfig + 90
        0x08000e84:    f1b04f80    ...O    CMP      r0,#0x40000000
        0x08000e88:    d011        ..      BEQ      0x8000eae ; TIM_Base_SetConfig + 90
        0x08000e8a:    4b15        .K      LDR      r3,[pc,#84] ; [0x8000ee0] = 0x40000400
        0x08000e8c:    4298        .B      CMP      r0,r3
        0x08000e8e:    d00e        ..      BEQ      0x8000eae ; TIM_Base_SetConfig + 90
        0x08000e90:    4b14        .K      LDR      r3,[pc,#80] ; [0x8000ee4] = 0x40000800
        0x08000e92:    4298        .B      CMP      r0,r3
        0x08000e94:    d00b        ..      BEQ      0x8000eae ; TIM_Base_SetConfig + 90
        0x08000e96:    4b14        .K      LDR      r3,[pc,#80] ; [0x8000ee8] = 0x40000c00
        0x08000e98:    4298        .B      CMP      r0,r3
        0x08000e9a:    d008        ..      BEQ      0x8000eae ; TIM_Base_SetConfig + 90
        0x08000e9c:    4b13        .K      LDR      r3,[pc,#76] ; [0x8000eec] = 0x40014000
        0x08000e9e:    4298        .B      CMP      r0,r3
        0x08000ea0:    d005        ..      BEQ      0x8000eae ; TIM_Base_SetConfig + 90
        0x08000ea2:    4b13        .K      LDR      r3,[pc,#76] ; [0x8000ef0] = 0x40014400
        0x08000ea4:    4298        .B      CMP      r0,r3
        0x08000ea6:    d002        ..      BEQ      0x8000eae ; TIM_Base_SetConfig + 90
        0x08000ea8:    4b12        .K      LDR      r3,[pc,#72] ; [0x8000ef4] = 0x40014800
        0x08000eaa:    4298        .B      CMP      r0,r3
        0x08000eac:    d103        ..      BNE      0x8000eb6 ; TIM_Base_SetConfig + 98
        0x08000eae:    f4227240    ".@r    BIC      r2,r2,#0x300
        0x08000eb2:    68cb        .h      LDR      r3,[r1,#0xc]
        0x08000eb4:    431a        .C      ORRS     r2,r2,r3
        0x08000eb6:    f0220380    "...    BIC      r3,r2,#0x80
        0x08000eba:    694c        Li      LDR      r4,[r1,#0x14]
        0x08000ebc:    ea430204    C...    ORR      r2,r3,r4
        0x08000ec0:    6002        .`      STR      r2,[r0,#0]
        0x08000ec2:    688b        .h      LDR      r3,[r1,#8]
        0x08000ec4:    62c3        .b      STR      r3,[r0,#0x2c]
        0x08000ec6:    680b        .h      LDR      r3,[r1,#0]
        0x08000ec8:    6283        .b      STR      r3,[r0,#0x28]
        0x08000eca:    4b04        .K      LDR      r3,[pc,#16] ; [0x8000edc] = 0x40010000
        0x08000ecc:    4298        .B      CMP      r0,r3
        0x08000ece:    d101        ..      BNE      0x8000ed4 ; TIM_Base_SetConfig + 128
        0x08000ed0:    690b        .i      LDR      r3,[r1,#0x10]
        0x08000ed2:    6303        .c      STR      r3,[r0,#0x30]
        0x08000ed4:    2301        .#      MOVS     r3,#1
        0x08000ed6:    6143        Ca      STR      r3,[r0,#0x14]
        0x08000ed8:    bd10        ..      POP      {r4,pc}
    $d
        0x08000eda:    0000        ..      DCW    0
        0x08000edc:    40010000    ...@    DCD    1073807360
        0x08000ee0:    40000400    ...@    DCD    1073742848
        0x08000ee4:    40000800    ...@    DCD    1073743872
        0x08000ee8:    40000c00    ...@    DCD    1073744896
        0x08000eec:    40014000    .@.@    DCD    1073823744
        0x08000ef0:    40014400    .D.@    DCD    1073824768
        0x08000ef4:    40014800    .H.@    DCD    1073825792
    $t
    i.UART_WaitOnFlagUntilTimeout
    UART_WaitOnFlagUntilTimeout
        0x08000ef8:    e92d41f0    -..A    PUSH     {r4-r8,lr}
        0x08000efc:    4604        .F      MOV      r4,r0
        0x08000efe:    460d        .F      MOV      r5,r1
        0x08000f00:    4617        .F      MOV      r7,r2
        0x08000f02:    4698        .F      MOV      r8,r3
        0x08000f04:    9e06        ..      LDR      r6,[sp,#0x18]
        0x08000f06:    e034        4.      B        0x8000f72 ; UART_WaitOnFlagUntilTimeout + 122
        0x08000f08:    1c70        p.      ADDS     r0,r6,#1
        0x08000f0a:    b388        ..      CBZ      r0,0x8000f70 ; UART_WaitOnFlagUntilTimeout + 120
        0x08000f0c:    b12e        ..      CBZ      r6,0x8000f1a ; UART_WaitOnFlagUntilTimeout + 34
        0x08000f0e:    f7fffc77    ..w.    BL       HAL_GetTick ; 0x8000800
        0x08000f12:    eba00008    ....    SUB      r0,r0,r8
        0x08000f16:    42b0        .B      CMP      r0,r6
        0x08000f18:    d92b        +.      BLS      0x8000f72 ; UART_WaitOnFlagUntilTimeout + 122
        0x08000f1a:    bf00        ..      NOP      
        0x08000f1c:    bf00        ..      NOP      
        0x08000f1e:    6821        !h      LDR      r1,[r4,#0]
        0x08000f20:    310c        .1      ADDS     r1,r1,#0xc
        0x08000f22:    e8511f00    Q...    LDREX    r1,[r1]
        0x08000f26:    f42170d0    !..p    BIC      r0,r1,#0x1a0
        0x08000f2a:    6821        !h      LDR      r1,[r4,#0]
        0x08000f2c:    310c        .1      ADDS     r1,r1,#0xc
        0x08000f2e:    e8410200    A...    STREX    r2,r0,[r1]
        0x08000f32:    2a00        .*      CMP      r2,#0
        0x08000f34:    d1f3        ..      BNE      0x8000f1e ; UART_WaitOnFlagUntilTimeout + 38
        0x08000f36:    bf00        ..      NOP      
        0x08000f38:    bf00        ..      NOP      
        0x08000f3a:    bf00        ..      NOP      
        0x08000f3c:    6821        !h      LDR      r1,[r4,#0]
        0x08000f3e:    3114        .1      ADDS     r1,r1,#0x14
        0x08000f40:    e8511f00    Q...    LDREX    r1,[r1]
        0x08000f44:    f0210001    !...    BIC      r0,r1,#1
        0x08000f48:    6821        !h      LDR      r1,[r4,#0]
        0x08000f4a:    3114        .1      ADDS     r1,r1,#0x14
        0x08000f4c:    e8410200    A...    STREX    r2,r0,[r1]
        0x08000f50:    2a00        .*      CMP      r2,#0
        0x08000f52:    d1f3        ..      BNE      0x8000f3c ; UART_WaitOnFlagUntilTimeout + 68
        0x08000f54:    bf00        ..      NOP      
        0x08000f56:    2020                MOVS     r0,#0x20
        0x08000f58:    f884003d    ..=.    STRB     r0,[r4,#0x3d]
        0x08000f5c:    f884003e    ..>.    STRB     r0,[r4,#0x3e]
        0x08000f60:    bf00        ..      NOP      
        0x08000f62:    2000        .       MOVS     r0,#0
        0x08000f64:    f884003c    ..<.    STRB     r0,[r4,#0x3c]
        0x08000f68:    bf00        ..      NOP      
        0x08000f6a:    2003        .       MOVS     r0,#3
        0x08000f6c:    e8bd81f0    ....    POP      {r4-r8,pc}
        0x08000f70:    e7ff        ..      B        0x8000f72 ; UART_WaitOnFlagUntilTimeout + 122
        0x08000f72:    6820         h      LDR      r0,[r4,#0]
        0x08000f74:    6800        .h      LDR      r0,[r0,#0]
        0x08000f76:    4028        (@      ANDS     r0,r0,r5
        0x08000f78:    42a8        .B      CMP      r0,r5
        0x08000f7a:    d101        ..      BNE      0x8000f80 ; UART_WaitOnFlagUntilTimeout + 136
        0x08000f7c:    2001        .       MOVS     r0,#1
        0x08000f7e:    e000        ..      B        0x8000f82 ; UART_WaitOnFlagUntilTimeout + 138
        0x08000f80:    2000        .       MOVS     r0,#0
        0x08000f82:    42b8        .B      CMP      r0,r7
        0x08000f84:    d0c0        ..      BEQ      0x8000f08 ; UART_WaitOnFlagUntilTimeout + 16
        0x08000f86:    2000        .       MOVS     r0,#0
        0x08000f88:    e7f0        ..      B        0x8000f6c ; UART_WaitOnFlagUntilTimeout + 116
    i.UsageFault_Handler
    UsageFault_Handler
        0x08000f8a:    bf00        ..      NOP      
        0x08000f8c:    e7fe        ..      B        0x8000f8c ; UsageFault_Handler + 2
        0x08000f8e:    0000        ..      MOVS     r0,r0
    i.__0printf
    __0printf
    __1printf
    __2printf
    __c89printf
    printf
        0x08000f90:    b40f        ..      PUSH     {r0-r3}
        0x08000f92:    4b05        .K      LDR      r3,[pc,#20] ; [0x8000fa8] = 0x80018a9
        0x08000f94:    b510        ..      PUSH     {r4,lr}
        0x08000f96:    a903        ..      ADD      r1,sp,#0xc
        0x08000f98:    4a04        .J      LDR      r2,[pc,#16] ; [0x8000fac] = 0x20000050
        0x08000f9a:    9802        ..      LDR      r0,[sp,#8]
        0x08000f9c:    f000f8f6    ....    BL       _printf_core ; 0x800118c
        0x08000fa0:    bc10        ..      POP      {r4}
        0x08000fa2:    f85dfb14    ]...    LDR      pc,[sp],#0x14
    $d
        0x08000fa6:    0000        ..      DCW    0
        0x08000fa8:    080018a9    ....    DCD    134224041
        0x08000fac:    20000050    P..     DCD    536870992
    $t
    i.__NVIC_GetPriorityGrouping
    __NVIC_GetPriorityGrouping
        0x08000fb0:    4802        .H      LDR      r0,[pc,#8] ; [0x8000fbc] = 0xe000ed0c
        0x08000fb2:    6800        .h      LDR      r0,[r0,#0]
        0x08000fb4:    f3c02002    ...     UBFX     r0,r0,#8,#3
        0x08000fb8:    4770        pG      BX       lr
    $d
        0x08000fba:    0000        ..      DCW    0
        0x08000fbc:    e000ed0c    ....    DCD    3758157068
    $t
    i.__NVIC_SetPriority
    __NVIC_SetPriority
        0x08000fc0:    b510        ..      PUSH     {r4,lr}
        0x08000fc2:    2800        .(      CMP      r0,#0
        0x08000fc4:    db04        ..      BLT      0x8000fd0 ; __NVIC_SetPriority + 16
        0x08000fc6:    070a        ..      LSLS     r2,r1,#28
        0x08000fc8:    0e13        ..      LSRS     r3,r2,#24
        0x08000fca:    4a05        .J      LDR      r2,[pc,#20] ; [0x8000fe0] = 0xe000e400
        0x08000fcc:    5413        .T      STRB     r3,[r2,r0]
        0x08000fce:    e006        ..      B        0x8000fde ; __NVIC_SetPriority + 30
        0x08000fd0:    070a        ..      LSLS     r2,r1,#28
        0x08000fd2:    0e14        ..      LSRS     r4,r2,#24
        0x08000fd4:    4a03        .J      LDR      r2,[pc,#12] ; [0x8000fe4] = 0xe000ed18
        0x08000fd6:    f000030f    ....    AND      r3,r0,#0xf
        0x08000fda:    1f1b        ..      SUBS     r3,r3,#4
        0x08000fdc:    54d4        .T      STRB     r4,[r2,r3]
        0x08000fde:    bd10        ..      POP      {r4,pc}
    $d
        0x08000fe0:    e000e400    ....    DCD    3758154752
        0x08000fe4:    e000ed18    ....    DCD    3758157080
    $t
    i.__scatterload_copy
    __scatterload_copy
        0x08000fe8:    e002        ..      B        0x8000ff0 ; __scatterload_copy + 8
        0x08000fea:    c808        ..      LDM      r0!,{r3}
        0x08000fec:    1f12        ..      SUBS     r2,r2,#4
        0x08000fee:    c108        ..      STM      r1!,{r3}
        0x08000ff0:    2a00        .*      CMP      r2,#0
        0x08000ff2:    d1fa        ..      BNE      0x8000fea ; __scatterload_copy + 2
        0x08000ff4:    4770        pG      BX       lr
    i.__scatterload_null
    __scatterload_null
        0x08000ff6:    4770        pG      BX       lr
    i.__scatterload_zeroinit
    __scatterload_zeroinit
        0x08000ff8:    2000        .       MOVS     r0,#0
        0x08000ffa:    e001        ..      B        0x8001000 ; __scatterload_zeroinit + 8
        0x08000ffc:    c101        ..      STM      r1!,{r0}
        0x08000ffe:    1f12        ..      SUBS     r2,r2,#4
        0x08001000:    2a00        .*      CMP      r2,#0
        0x08001002:    d1fb        ..      BNE      0x8000ffc ; __scatterload_zeroinit + 4
        0x08001004:    4770        pG      BX       lr
        0x08001006:    0000        ..      MOVS     r0,r0
    i._fp_digits
    _fp_digits
        0x08001008:    e92d5fff    -.._    PUSH     {r0-r12,lr}
        0x0800100c:    b082        ..      SUB      sp,sp,#8
        0x0800100e:    2100        .!      MOVS     r1,#0
        0x08001010:    e9dd3004    ...0    LDRD     r3,r0,[sp,#0x10]
        0x08001014:    0d02        ..      LSRS     r2,r0,#20
        0x08001016:    f8ddb040    ..@.    LDR      r11,[sp,#0x40]
        0x0800101a:    4303        .C      ORRS     r3,r3,r0
        0x0800101c:    d018        ..      BEQ      0x8001050 ; _fp_digits + 72
        0x0800101e:    f6445010    D..P    MOV      r0,#0x4d10
        0x08001022:    f2a232ff    ...2    SUB      r2,r2,#0x3ff
        0x08001026:    4342        BC      MULS     r2,r0,r2
        0x08001028:    1415        ..      ASRS     r5,r2,#16
        0x0800102a:    9811        ..      LDR      r0,[sp,#0x44]
        0x0800102c:    2801        .(      CMP      r0,#1
        0x0800102e:    d01f        ..      BEQ      0x8001070 ; _fp_digits + 104
        0x08001030:    eba5000b    ....    SUB      r0,r5,r11
        0x08001034:    1c40        @.      ADDS     r0,r0,#1
        0x08001036:    ea5f0a00    _...    MOVS     r10,r0
        0x0800103a:    f04f0600    O...    MOV      r6,#0
        0x0800103e:    4f4e        NO      LDR      r7,[pc,#312] ; [0x8001178] = 0x40140000
        0x08001040:    f8df9138    ..8.    LDR      r9,[pc,#312] ; [0x800117c] = 0x3ff00000
        0x08001044:    46b0        .F      MOV      r8,r6
        0x08001046:    4650        PF      MOV      r0,r10
        0x08001048:    d515        ..      BPL      0x8001076 ; _fp_digits + 110
        0x0800104a:    f1ca0400    ....    RSB      r4,r10,#0
        0x0800104e:    e013        ..      B        0x8001078 ; _fp_digits + 112
        0x08001050:    9811        ..      LDR      r0,[sp,#0x44]
        0x08001052:    2401        .$      MOVS     r4,#1
        0x08001054:    a34a        J.      ADR      r3,{pc}+0x12c ; 0x8001180
        0x08001056:    2801        .(      CMP      r0,#1
        0x08001058:    d101        ..      BNE      0x800105e ; _fp_digits + 86
        0x0800105a:    ea6f010b    o...    MVN      r1,r11
        0x0800105e:    9802        ..      LDR      r0,[sp,#8]
        0x08001060:    9a11        ..      LDR      r2,[sp,#0x44]
        0x08001062:    e9c03100    ...1    STRD     r3,r1,[r0,#0]
        0x08001066:    e9c04202    ...B    STRD     r4,r2,[r0,#8]
        0x0800106a:    b006        ..      ADD      sp,sp,#0x18
        0x0800106c:    e8bd9ff0    ....    POP      {r4-r12,pc}
        0x08001070:    f1cb0000    ....    RSB      r0,r11,#0
        0x08001074:    e7df        ..      B        0x8001036 ; _fp_digits + 46
        0x08001076:    4604        .F      MOV      r4,r0
        0x08001078:    2100        .!      MOVS     r1,#0
        0x0800107a:    4a40        @J      LDR      r2,[pc,#256] ; [0x800117c] = 0x3ff00000
        0x0800107c:    1849        I.      ADDS     r1,r1,r1
        0x0800107e:    eb425004    B..P    ADC      r0,r2,r4,LSL #20
        0x08001082:    e9cd1000    ....    STRD     r1,r0,[sp,#0]
        0x08001086:    e012        ..      B        0x80010ae ; _fp_digits + 166
        0x08001088:    07e0        ..      LSLS     r0,r4,#31
        0x0800108a:    d007        ..      BEQ      0x800109c ; _fp_digits + 148
        0x0800108c:    4632        2F      MOV      r2,r6
        0x0800108e:    463b        ;F      MOV      r3,r7
        0x08001090:    4640        @F      MOV      r0,r8
        0x08001092:    4649        IF      MOV      r1,r9
        0x08001094:    f7fffa0b    ....    BL       __aeabi_dmul ; 0x80004ae
        0x08001098:    4680        .F      MOV      r8,r0
        0x0800109a:    4689        .F      MOV      r9,r1
        0x0800109c:    4632        2F      MOV      r2,r6
        0x0800109e:    463b        ;F      MOV      r3,r7
        0x080010a0:    4610        .F      MOV      r0,r2
        0x080010a2:    4619        .F      MOV      r1,r3
        0x080010a4:    f7fffa03    ....    BL       __aeabi_dmul ; 0x80004ae
        0x080010a8:    4606        .F      MOV      r6,r0
        0x080010aa:    460f        .F      MOV      r7,r1
        0x080010ac:    1064        d.      ASRS     r4,r4,#1
        0x080010ae:    2c00        .,      CMP      r4,#0
        0x080010b0:    d1ea        ..      BNE      0x8001088 ; _fp_digits + 128
        0x080010b2:    e9dd0104    ....    LDRD     r0,r1,[sp,#0x10]
        0x080010b6:    e9dd2300    ...#    LDRD     r2,r3,[sp,#0]
        0x080010ba:    f1ba0f00    ....    CMP      r10,#0
        0x080010be:    da06        ..      BGE      0x80010ce ; _fp_digits + 198
        0x080010c0:    f7fff9f5    ....    BL       __aeabi_dmul ; 0x80004ae
        0x080010c4:    4642        BF      MOV      r2,r8
        0x080010c6:    464b        KF      MOV      r3,r9
        0x080010c8:    f7fff9f1    ....    BL       __aeabi_dmul ; 0x80004ae
        0x080010cc:    e005        ..      B        0x80010da ; _fp_digits + 210
        0x080010ce:    f7fffa60    ..`.    BL       __aeabi_ddiv ; 0x8000592
        0x080010d2:    4642        BF      MOV      r2,r8
        0x080010d4:    464b        KF      MOV      r3,r9
        0x080010d6:    f7fffa5c    ..\.    BL       __aeabi_ddiv ; 0x8000592
        0x080010da:    4604        .F      MOV      r4,r0
        0x080010dc:    460e        .F      MOV      r6,r1
        0x080010de:    2200        ."      MOVS     r2,#0
        0x080010e0:    4b28        (K      LDR      r3,[pc,#160] ; [0x8001184] = 0x43f00000
        0x080010e2:    f7fffadd    ....    BL       __aeabi_cdrcmple ; 0x80006a0
        0x080010e6:    d803        ..      BHI      0x80010f0 ; _fp_digits + 232
        0x080010e8:    f04f30ff    O..0    MOV      r0,#0xffffffff
        0x080010ec:    4601        .F      MOV      r1,r0
        0x080010ee:    e007        ..      B        0x8001100 ; _fp_digits + 248
        0x080010f0:    2200        ."      MOVS     r2,#0
        0x080010f2:    4b25        %K      LDR      r3,[pc,#148] ; [0x8001188] = 0x3fe00000
        0x080010f4:    4620         F      MOV      r0,r4
        0x080010f6:    4631        1F      MOV      r1,r6
        0x080010f8:    f7fff932    ..2.    BL       __I$use$fp ; 0x8000360
        0x080010fc:    f7fffab8    ....    BL       __aeabi_d2ulz ; 0x8000670
        0x08001100:    2410        .$      MOVS     r4,#0x10
        0x08001102:    e009        ..      B        0x8001118 ; _fp_digits + 272
        0x08001104:    2c00        .,      CMP      r4,#0
        0x08001106:    db0a        ..      BLT      0x800111e ; _fp_digits + 278
        0x08001108:    220a        ."      MOVS     r2,#0xa
        0x0800110a:    2300        .#      MOVS     r3,#0
        0x0800110c:    f7fff8c2    ....    BL       __aeabi_uldivmod ; 0x8000294
        0x08001110:    9b03        ..      LDR      r3,[sp,#0xc]
        0x08001112:    3230        02      ADDS     r2,r2,#0x30
        0x08001114:    551a        .U      STRB     r2,[r3,r4]
        0x08001116:    1e64        d.      SUBS     r4,r4,#1
        0x08001118:    ea500201    P...    ORRS     r2,r0,r1
        0x0800111c:    d1f2        ..      BNE      0x8001104 ; _fp_digits + 252
        0x0800111e:    1c64        d.      ADDS     r4,r4,#1
        0x08001120:    9a03        ..      LDR      r2,[sp,#0xc]
        0x08001122:    f1c40311    ....    RSB      r3,r4,#0x11
        0x08001126:    4414        .D      ADD      r4,r4,r2
        0x08001128:    9a11        ..      LDR      r2,[sp,#0x44]
        0x0800112a:    2a01        .*      CMP      r2,#1
        0x0800112c:    d003        ..      BEQ      0x8001136 ; _fp_digits + 302
        0x0800112e:    2201        ."      MOVS     r2,#1
        0x08001130:    4308        .C      ORRS     r0,r0,r1
        0x08001132:    d10d        ..      BNE      0x8001150 ; _fp_digits + 328
        0x08001134:    e00a        ..      B        0x800114c ; _fp_digits + 324
        0x08001136:    4308        .C      ORRS     r0,r0,r1
        0x08001138:    d004        ..      BEQ      0x8001144 ; _fp_digits + 316
        0x0800113a:    2000        .       MOVS     r0,#0
        0x0800113c:    f04f0b11    O...    MOV      r11,#0x11
        0x08001140:    9011        ..      STR      r0,[sp,#0x44]
        0x08001142:    e772        r.      B        0x800102a ; _fp_digits + 34
        0x08001144:    eba3050b    ....    SUB      r5,r3,r11
        0x08001148:    1e6d        m.      SUBS     r5,r5,#1
        0x0800114a:    e00d        ..      B        0x8001168 ; _fp_digits + 352
        0x0800114c:    455b        [E      CMP      r3,r11
        0x0800114e:    dd04        ..      BLE      0x800115a ; _fp_digits + 338
        0x08001150:    f04f0200    O...    MOV      r2,#0
        0x08001154:    f1050501    ....    ADD      r5,r5,#1
        0x08001158:    e004        ..      B        0x8001164 ; _fp_digits + 348
        0x0800115a:    da03        ..      BGE      0x8001164 ; _fp_digits + 348
        0x0800115c:    f04f0200    O...    MOV      r2,#0
        0x08001160:    f1a50501    ....    SUB      r5,r5,#1
        0x08001164:    2a00        .*      CMP      r2,#0
        0x08001166:    d0ec        ..      BEQ      0x8001142 ; _fp_digits + 314
        0x08001168:    9802        ..      LDR      r0,[sp,#8]
        0x0800116a:    9911        ..      LDR      r1,[sp,#0x44]
        0x0800116c:    e9c03102    ...1    STRD     r3,r1,[r0,#8]
        0x08001170:    e9c04500    ...E    STRD     r4,r5,[r0,#0]
        0x08001174:    e779        y.      B        0x800106a ; _fp_digits + 98
    $d
        0x08001176:    0000        ..      DCW    0
        0x08001178:    40140000    ...@    DCD    1075052544
        0x0800117c:    3ff00000    ...?    DCD    1072693248
        0x08001180:    00000030    0...    DCD    48
        0x08001184:    43f00000    ...C    DCD    1139802112
        0x08001188:    3fe00000    ...?    DCD    1071644672
    $t
    i._printf_core
    _printf_core
        0x0800118c:    e92d4fff    -..O    PUSH     {r0-r11,lr}
        0x08001190:    b095        ..      SUB      sp,sp,#0x54
        0x08001192:    469a        .F      MOV      r10,r3
        0x08001194:    4688        .F      MOV      r8,r1
        0x08001196:    4606        .F      MOV      r6,r0
        0x08001198:    2500        .%      MOVS     r5,#0
        0x0800119a:    e1ee        ..      B        0x800157a ; _printf_core + 1006
        0x0800119c:    2825        %(      CMP      r0,#0x25
        0x0800119e:    d177        w.      BNE      0x8001290 ; _printf_core + 260
        0x080011a0:    2400        .$      MOVS     r4,#0
        0x080011a2:    4627        'F      MOV      r7,r4
        0x080011a4:    4af9        .J      LDR      r2,[pc,#996] ; [0x800158c] = 0x12809
        0x080011a6:    2101        .!      MOVS     r1,#1
        0x080011a8:    9403        ..      STR      r4,[sp,#0xc]
        0x080011aa:    e000        ..      B        0x80011ae ; _printf_core + 34
        0x080011ac:    4304        .C      ORRS     r4,r4,r0
        0x080011ae:    f8163f01    ...?    LDRB     r3,[r6,#1]!
        0x080011b2:    3b20         ;      SUBS     r3,r3,#0x20
        0x080011b4:    fa01f003    ....    LSL      r0,r1,r3
        0x080011b8:    4210        .B      TST      r0,r2
        0x080011ba:    d1f7        ..      BNE      0x80011ac ; _printf_core + 32
        0x080011bc:    7830        0x      LDRB     r0,[r6,#0]
        0x080011be:    282a        *(      CMP      r0,#0x2a
        0x080011c0:    d011        ..      BEQ      0x80011e6 ; _printf_core + 90
        0x080011c2:    f06f032f    o./.    MVN      r3,#0x2f
        0x080011c6:    7830        0x      LDRB     r0,[r6,#0]
        0x080011c8:    f1a00230    ..0.    SUB      r2,r0,#0x30
        0x080011cc:    2a09        .*      CMP      r2,#9
        0x080011ce:    d816        ..      BHI      0x80011fe ; _printf_core + 114
        0x080011d0:    9a03        ..      LDR      r2,[sp,#0xc]
        0x080011d2:    f0440402    D...    ORR      r4,r4,#2
        0x080011d6:    eb020282    ....    ADD      r2,r2,r2,LSL #2
        0x080011da:    eb030242    ..B.    ADD      r2,r3,r2,LSL #1
        0x080011de:    4410        .D      ADD      r0,r0,r2
        0x080011e0:    1c76        v.      ADDS     r6,r6,#1
        0x080011e2:    9003        ..      STR      r0,[sp,#0xc]
        0x080011e4:    e7ef        ..      B        0x80011c6 ; _printf_core + 58
        0x080011e6:    f8582b04    X..+    LDR      r2,[r8],#4
        0x080011ea:    9203        ..      STR      r2,[sp,#0xc]
        0x080011ec:    2a00        .*      CMP      r2,#0
        0x080011ee:    da03        ..      BGE      0x80011f8 ; _printf_core + 108
        0x080011f0:    4250        PB      RSBS     r0,r2,#0
        0x080011f2:    f4445400    D..T    ORR      r4,r4,#0x2000
        0x080011f6:    9003        ..      STR      r0,[sp,#0xc]
        0x080011f8:    f0440402    D...    ORR      r4,r4,#2
        0x080011fc:    1c76        v.      ADDS     r6,r6,#1
        0x080011fe:    7830        0x      LDRB     r0,[r6,#0]
        0x08001200:    282e        .(      CMP      r0,#0x2e
        0x08001202:    d116        ..      BNE      0x8001232 ; _printf_core + 166
        0x08001204:    f8160f01    ....    LDRB     r0,[r6,#1]!
        0x08001208:    f0440404    D...    ORR      r4,r4,#4
        0x0800120c:    282a        *(      CMP      r0,#0x2a
        0x0800120e:    d00d        ..      BEQ      0x800122c ; _printf_core + 160
        0x08001210:    f06f022f    o./.    MVN      r2,#0x2f
        0x08001214:    7830        0x      LDRB     r0,[r6,#0]
        0x08001216:    f1a00330    ..0.    SUB      r3,r0,#0x30
        0x0800121a:    2b09        .+      CMP      r3,#9
        0x0800121c:    d809        ..      BHI      0x8001232 ; _printf_core + 166
        0x0800121e:    eb070387    ....    ADD      r3,r7,r7,LSL #2
        0x08001222:    eb020343    ..C.    ADD      r3,r2,r3,LSL #1
        0x08001226:    18c7        ..      ADDS     r7,r0,r3
        0x08001228:    1c76        v.      ADDS     r6,r6,#1
        0x0800122a:    e7f3        ..      B        0x8001214 ; _printf_core + 136
        0x0800122c:    f8587b04    X..{    LDR      r7,[r8],#4
        0x08001230:    1c76        v.      ADDS     r6,r6,#1
        0x08001232:    7830        0x      LDRB     r0,[r6,#0]
        0x08001234:    286c        l(      CMP      r0,#0x6c
        0x08001236:    d00f        ..      BEQ      0x8001258 ; _printf_core + 204
        0x08001238:    dc06        ..      BGT      0x8001248 ; _printf_core + 188
        0x0800123a:    284c        L(      CMP      r0,#0x4c
        0x0800123c:    d017        ..      BEQ      0x800126e ; _printf_core + 226
        0x0800123e:    2868        h(      CMP      r0,#0x68
        0x08001240:    d00d        ..      BEQ      0x800125e ; _printf_core + 210
        0x08001242:    286a        j(      CMP      r0,#0x6a
        0x08001244:    d114        ..      BNE      0x8001270 ; _printf_core + 228
        0x08001246:    e004        ..      B        0x8001252 ; _printf_core + 198
        0x08001248:    2874        t(      CMP      r0,#0x74
        0x0800124a:    d010        ..      BEQ      0x800126e ; _printf_core + 226
        0x0800124c:    287a        z(      CMP      r0,#0x7a
        0x0800124e:    d10f        ..      BNE      0x8001270 ; _printf_core + 228
        0x08001250:    e00d        ..      B        0x800126e ; _printf_core + 226
        0x08001252:    f4441400    D...    ORR      r4,r4,#0x200000
        0x08001256:    e00a        ..      B        0x800126e ; _printf_core + 226
        0x08001258:    f4441480    D...    ORR      r4,r4,#0x100000
        0x0800125c:    e001        ..      B        0x8001262 ; _printf_core + 214
        0x0800125e:    f4441440    D.@.    ORR      r4,r4,#0x300000
        0x08001262:    7872        rx      LDRB     r2,[r6,#1]
        0x08001264:    4282        .B      CMP      r2,r0
        0x08001266:    d102        ..      BNE      0x800126e ; _printf_core + 226
        0x08001268:    f5041480    ....    ADD      r4,r4,#0x100000
        0x0800126c:    1c76        v.      ADDS     r6,r6,#1
        0x0800126e:    1c76        v.      ADDS     r6,r6,#1
        0x08001270:    7830        0x      LDRB     r0,[r6,#0]
        0x08001272:    2866        f(      CMP      r0,#0x66
        0x08001274:    d00b        ..      BEQ      0x800128e ; _printf_core + 258
        0x08001276:    dc13        ..      BGT      0x80012a0 ; _printf_core + 276
        0x08001278:    2858        X(      CMP      r0,#0x58
        0x0800127a:    d077        w.      BEQ      0x800136c ; _printf_core + 480
        0x0800127c:    dc09        ..      BGT      0x8001292 ; _printf_core + 262
        0x0800127e:    2800        .(      CMP      r0,#0
        0x08001280:    d075        u.      BEQ      0x800136e ; _printf_core + 482
        0x08001282:    2845        E(      CMP      r0,#0x45
        0x08001284:    d0f6        ..      BEQ      0x8001274 ; _printf_core + 232
        0x08001286:    2846        F(      CMP      r0,#0x46
        0x08001288:    d0f4        ..      BEQ      0x8001274 ; _printf_core + 232
        0x0800128a:    2847        G(      CMP      r0,#0x47
        0x0800128c:    d11a        ..      BNE      0x80012c4 ; _printf_core + 312
        0x0800128e:    e193        ..      B        0x80015b8 ; _printf_core + 1068
        0x08001290:    e018        ..      B        0x80012c4 ; _printf_core + 312
        0x08001292:    2863        c(      CMP      r0,#0x63
        0x08001294:    d035        5.      BEQ      0x8001302 ; _printf_core + 374
        0x08001296:    2864        d(      CMP      r0,#0x64
        0x08001298:    d079        y.      BEQ      0x800138e ; _printf_core + 514
        0x0800129a:    2865        e(      CMP      r0,#0x65
        0x0800129c:    d112        ..      BNE      0x80012c4 ; _printf_core + 312
        0x0800129e:    e18b        ..      B        0x80015b8 ; _printf_core + 1068
        0x080012a0:    2870        p(      CMP      r0,#0x70
        0x080012a2:    d073        s.      BEQ      0x800138c ; _printf_core + 512
        0x080012a4:    dc08        ..      BGT      0x80012b8 ; _printf_core + 300
        0x080012a6:    2867        g(      CMP      r0,#0x67
        0x080012a8:    d0f1        ..      BEQ      0x800128e ; _printf_core + 258
        0x080012aa:    2869        i(      CMP      r0,#0x69
        0x080012ac:    d06f        o.      BEQ      0x800138e ; _printf_core + 514
        0x080012ae:    286e        n(      CMP      r0,#0x6e
        0x080012b0:    d00d        ..      BEQ      0x80012ce ; _printf_core + 322
        0x080012b2:    286f        o(      CMP      r0,#0x6f
        0x080012b4:    d106        ..      BNE      0x80012c4 ; _printf_core + 312
        0x080012b6:    e0ac        ..      B        0x8001412 ; _printf_core + 646
        0x080012b8:    2873        s(      CMP      r0,#0x73
        0x080012ba:    d02c        ,.      BEQ      0x8001316 ; _printf_core + 394
        0x080012bc:    2875        u(      CMP      r0,#0x75
        0x080012be:    d074        t.      BEQ      0x80013aa ; _printf_core + 542
        0x080012c0:    2878        x(      CMP      r0,#0x78
        0x080012c2:    d053        S.      BEQ      0x800136c ; _printf_core + 480
        0x080012c4:    4652        RF      MOV      r2,r10
        0x080012c6:    9917        ..      LDR      r1,[sp,#0x5c]
        0x080012c8:    4790        .G      BLX      r2
        0x080012ca:    1c6d        m.      ADDS     r5,r5,#1
        0x080012cc:    e154        T.      B        0x8001578 ; _printf_core + 1004
        0x080012ce:    f3c45002    ...P    UBFX     r0,r4,#20,#3
        0x080012d2:    2802        .(      CMP      r0,#2
        0x080012d4:    d009        ..      BEQ      0x80012ea ; _printf_core + 350
        0x080012d6:    2803        .(      CMP      r0,#3
        0x080012d8:    d00d        ..      BEQ      0x80012f6 ; _printf_core + 362
        0x080012da:    f8d81000    ....    LDR      r1,[r8,#0]
        0x080012de:    2804        .(      CMP      r0,#4
        0x080012e0:    d00d        ..      BEQ      0x80012fe ; _printf_core + 370
        0x080012e2:    600d        .`      STR      r5,[r1,#0]
        0x080012e4:    f1080804    ....    ADD      r8,r8,#4
        0x080012e8:    e146        F.      B        0x8001578 ; _printf_core + 1004
        0x080012ea:    f8d81000    ....    LDR      r1,[r8,#0]
        0x080012ee:    17ea        ..      ASRS     r2,r5,#31
        0x080012f0:    e9c15200    ...R    STRD     r5,r2,[r1,#0]
        0x080012f4:    e7f6        ..      B        0x80012e4 ; _printf_core + 344
        0x080012f6:    f8d81000    ....    LDR      r1,[r8,#0]
        0x080012fa:    800d        ..      STRH     r5,[r1,#0]
        0x080012fc:    e7f2        ..      B        0x80012e4 ; _printf_core + 344
        0x080012fe:    700d        .p      STRB     r5,[r1,#0]
        0x08001300:    e7f0        ..      B        0x80012e4 ; _printf_core + 344
        0x08001302:    f8181b04    ....    LDRB     r1,[r8],#4
        0x08001306:    f88d1000    ....    STRB     r1,[sp,#0]
        0x0800130a:    2000        .       MOVS     r0,#0
        0x0800130c:    f88d0001    ....    STRB     r0,[sp,#1]
        0x08001310:    46eb        .F      MOV      r11,sp
        0x08001312:    2001        .       MOVS     r0,#1
        0x08001314:    e003        ..      B        0x800131e ; _printf_core + 402
        0x08001316:    f858bb04    X...    LDR      r11,[r8],#4
        0x0800131a:    f04f30ff    O..0    MOV      r0,#0xffffffff
        0x0800131e:    0761        a.      LSLS     r1,r4,#29
        0x08001320:    f04f0100    O...    MOV      r1,#0
        0x08001324:    d402        ..      BMI      0x800132c ; _printf_core + 416
        0x08001326:    e00d        ..      B        0x8001344 ; _printf_core + 440
        0x08001328:    f1090101    ....    ADD      r1,r9,#1
        0x0800132c:    4689        .F      MOV      r9,r1
        0x0800132e:    42b9        .B      CMP      r1,r7
        0x08001330:    da0f        ..      BGE      0x8001352 ; _printf_core + 454
        0x08001332:    4581        .E      CMP      r9,r0
        0x08001334:    dbf8        ..      BLT      0x8001328 ; _printf_core + 412
        0x08001336:    f81b1009    ....    LDRB     r1,[r11,r9]
        0x0800133a:    2900        .)      CMP      r1,#0
        0x0800133c:    d1f4        ..      BNE      0x8001328 ; _printf_core + 412
        0x0800133e:    e008        ..      B        0x8001352 ; _printf_core + 454
        0x08001340:    f1090101    ....    ADD      r1,r9,#1
        0x08001344:    4689        .F      MOV      r9,r1
        0x08001346:    4281        .B      CMP      r1,r0
        0x08001348:    dbfa        ..      BLT      0x8001340 ; _printf_core + 436
        0x0800134a:    f81b1009    ....    LDRB     r1,[r11,r9]
        0x0800134e:    2900        .)      CMP      r1,#0
        0x08001350:    d1f6        ..      BNE      0x8001340 ; _printf_core + 436
        0x08001352:    9803        ..      LDR      r0,[sp,#0xc]
        0x08001354:    4653        SF      MOV      r3,r10
        0x08001356:    eba00709    ....    SUB      r7,r0,r9
        0x0800135a:    4621        !F      MOV      r1,r4
        0x0800135c:    4638        8F      MOV      r0,r7
        0x0800135e:    9a17        ..      LDR      r2,[sp,#0x5c]
        0x08001360:    f000fa80    ....    BL       _printf_pre_padding ; 0x8001864
        0x08001364:    4428        (D      ADD      r0,r0,r5
        0x08001366:    eb000509    ....    ADD      r5,r0,r9
        0x0800136a:    e007        ..      B        0x800137c ; _printf_core + 496
        0x0800136c:    e044        D.      B        0x80013f8 ; _printf_core + 620
        0x0800136e:    e108        ..      B        0x8001582 ; _printf_core + 1014
        0x08001370:    e00d        ..      B        0x800138e ; _printf_core + 514
        0x08001372:    f81b0b01    ....    LDRB     r0,[r11],#1
        0x08001376:    4652        RF      MOV      r2,r10
        0x08001378:    9917        ..      LDR      r1,[sp,#0x5c]
        0x0800137a:    4790        .G      BLX      r2
        0x0800137c:    f1b90901    ....    SUBS     r9,r9,#1
        0x08001380:    d2f7        ..      BCS      0x8001372 ; _printf_core + 486
        0x08001382:    4653        SF      MOV      r3,r10
        0x08001384:    4621        !F      MOV      r1,r4
        0x08001386:    4638        8F      MOV      r0,r7
        0x08001388:    9a17        ..      LDR      r2,[sp,#0x5c]
        0x0800138a:    e0f2        ..      B        0x8001572 ; _printf_core + 998
        0x0800138c:    e039        9.      B        0x8001402 ; _printf_core + 630
        0x0800138e:    210a        .!      MOVS     r1,#0xa
        0x08001390:    f3c45202    ...R    UBFX     r2,r4,#20,#3
        0x08001394:    f04f0b00    O...    MOV      r11,#0
        0x08001398:    9100        ..      STR      r1,[sp,#0]
        0x0800139a:    2a02        .*      CMP      r2,#2
        0x0800139c:    d006        ..      BEQ      0x80013ac ; _printf_core + 544
        0x0800139e:    f8580b04    X...    LDR      r0,[r8],#4
        0x080013a2:    17c1        ..      ASRS     r1,r0,#31
        0x080013a4:    2a03        .*      CMP      r2,#3
        0x080013a6:    d009        ..      BEQ      0x80013bc ; _printf_core + 560
        0x080013a8:    e00a        ..      B        0x80013c0 ; _printf_core + 564
        0x080013aa:    e023        #.      B        0x80013f4 ; _printf_core + 616
        0x080013ac:    f1080007    ....    ADD      r0,r8,#7
        0x080013b0:    f0200207     ...    BIC      r2,r0,#7
        0x080013b4:    e8f20102    ....    LDRD     r0,r1,[r2],#8
        0x080013b8:    4690        .F      MOV      r8,r2
        0x080013ba:    e005        ..      B        0x80013c8 ; _printf_core + 572
        0x080013bc:    b200        ..      SXTH     r0,r0
        0x080013be:    17c1        ..      ASRS     r1,r0,#31
        0x080013c0:    2a04        .*      CMP      r2,#4
        0x080013c2:    d101        ..      BNE      0x80013c8 ; _printf_core + 572
        0x080013c4:    b240        @.      SXTB     r0,r0
        0x080013c6:    17c1        ..      ASRS     r1,r0,#31
        0x080013c8:    2900        .)      CMP      r1,#0
        0x080013ca:    da06        ..      BGE      0x80013da ; _printf_core + 590
        0x080013cc:    460a        .F      MOV      r2,r1
        0x080013ce:    2100        .!      MOVS     r1,#0
        0x080013d0:    4240        @B      RSBS     r0,r0,#0
        0x080013d2:    eb610102    a...    SBC      r1,r1,r2
        0x080013d6:    222d        -"      MOVS     r2,#0x2d
        0x080013d8:    e002        ..      B        0x80013e0 ; _printf_core + 596
        0x080013da:    0522        ".      LSLS     r2,r4,#20
        0x080013dc:    d504        ..      BPL      0x80013e8 ; _printf_core + 604
        0x080013de:    222b        +"      MOVS     r2,#0x2b
        0x080013e0:    f88d2004    ...     STRB     r2,[sp,#4]
        0x080013e4:    2201        ."      MOVS     r2,#1
        0x080013e6:    e003        ..      B        0x80013f0 ; _printf_core + 612
        0x080013e8:    07e2        ..      LSLS     r2,r4,#31
        0x080013ea:    d001        ..      BEQ      0x80013f0 ; _printf_core + 612
        0x080013ec:    2220         "      MOVS     r2,#0x20
        0x080013ee:    e7f7        ..      B        0x80013e0 ; _printf_core + 596
        0x080013f0:    4691        .F      MOV      r9,r2
        0x080013f2:    e057        W.      B        0x80014a4 ; _printf_core + 792
        0x080013f4:    210a        .!      MOVS     r1,#0xa
        0x080013f6:    e000        ..      B        0x80013fa ; _printf_core + 622
        0x080013f8:    2110        .!      MOVS     r1,#0x10
        0x080013fa:    f04f0b00    O...    MOV      r11,#0
        0x080013fe:    9100        ..      STR      r1,[sp,#0]
        0x08001400:    e00b        ..      B        0x800141a ; _printf_core + 654
        0x08001402:    2110        .!      MOVS     r1,#0x10
        0x08001404:    f04f0b00    O...    MOV      r11,#0
        0x08001408:    f0440404    D...    ORR      r4,r4,#4
        0x0800140c:    2708        .'      MOVS     r7,#8
        0x0800140e:    9100        ..      STR      r1,[sp,#0]
        0x08001410:    e003        ..      B        0x800141a ; _printf_core + 654
        0x08001412:    2008        .       MOVS     r0,#8
        0x08001414:    f04f0b00    O...    MOV      r11,#0
        0x08001418:    9000        ..      STR      r0,[sp,#0]
        0x0800141a:    f3c45202    ...R    UBFX     r2,r4,#20,#3
        0x0800141e:    2a02        .*      CMP      r2,#2
        0x08001420:    d005        ..      BEQ      0x800142e ; _printf_core + 674
        0x08001422:    f8580b04    X...    LDR      r0,[r8],#4
        0x08001426:    2100        .!      MOVS     r1,#0
        0x08001428:    2a03        .*      CMP      r2,#3
        0x0800142a:    d008        ..      BEQ      0x800143e ; _printf_core + 690
        0x0800142c:    e008        ..      B        0x8001440 ; _printf_core + 692
        0x0800142e:    f1080007    ....    ADD      r0,r8,#7
        0x08001432:    f0200207     ...    BIC      r2,r0,#7
        0x08001436:    e8f20102    ....    LDRD     r0,r1,[r2],#8
        0x0800143a:    4690        .F      MOV      r8,r2
        0x0800143c:    e003        ..      B        0x8001446 ; _printf_core + 698
        0x0800143e:    b280        ..      UXTH     r0,r0
        0x08001440:    2a04        .*      CMP      r2,#4
        0x08001442:    d100        ..      BNE      0x8001446 ; _printf_core + 698
        0x08001444:    b2c0        ..      UXTB     r0,r0
        0x08001446:    f04f0900    O...    MOV      r9,#0
        0x0800144a:    0722        ".      LSLS     r2,r4,#28
        0x0800144c:    d52a        *.      BPL      0x80014a4 ; _printf_core + 792
        0x0800144e:    7832        2x      LDRB     r2,[r6,#0]
        0x08001450:    2a70        p*      CMP      r2,#0x70
        0x08001452:    d007        ..      BEQ      0x8001464 ; _printf_core + 728
        0x08001454:    f8ddc000    ....    LDR      r12,[sp,#0]
        0x08001458:    f08c0c10    ....    EOR      r12,r12,#0x10
        0x0800145c:    ea5c0c0b    \...    ORRS     r12,r12,r11
        0x08001460:    d005        ..      BEQ      0x800146e ; _printf_core + 738
        0x08001462:    e00e        ..      B        0x8001482 ; _printf_core + 758
        0x08001464:    2240        @"      MOVS     r2,#0x40
        0x08001466:    f88d2004    ...     STRB     r2,[sp,#4]
        0x0800146a:    2201        ."      MOVS     r2,#1
        0x0800146c:    e008        ..      B        0x8001480 ; _printf_core + 756
        0x0800146e:    ea500301    P...    ORRS     r3,r0,r1
        0x08001472:    d006        ..      BEQ      0x8001482 ; _printf_core + 758
        0x08001474:    2330        0#      MOVS     r3,#0x30
        0x08001476:    f88d3004    ...0    STRB     r3,[sp,#4]
        0x0800147a:    f88d2005    ...     STRB     r2,[sp,#5]
        0x0800147e:    2202        ."      MOVS     r2,#2
        0x08001480:    4691        .F      MOV      r9,r2
        0x08001482:    9b00        ..      LDR      r3,[sp,#0]
        0x08001484:    f0830308    ....    EOR      r3,r3,#8
        0x08001488:    ea53030b    S...    ORRS     r3,r3,r11
        0x0800148c:    d10a        ..      BNE      0x80014a4 ; _printf_core + 792
        0x0800148e:    ea500201    P...    ORRS     r2,r0,r1
        0x08001492:    d101        ..      BNE      0x8001498 ; _printf_core + 780
        0x08001494:    0762        b.      LSLS     r2,r4,#29
        0x08001496:    d505        ..      BPL      0x80014a4 ; _printf_core + 792
        0x08001498:    2230        0"      MOVS     r2,#0x30
        0x0800149a:    f88d2004    ...     STRB     r2,[sp,#4]
        0x0800149e:    f04f0901    O...    MOV      r9,#1
        0x080014a2:    1e7f        ..      SUBS     r7,r7,#1
        0x080014a4:    7832        2x      LDRB     r2,[r6,#0]
        0x080014a6:    2a58        X*      CMP      r2,#0x58
        0x080014a8:    d004        ..      BEQ      0x80014b4 ; _printf_core + 808
        0x080014aa:    a239        9.      ADR      r2,{pc}+0xe6 ; 0x8001590
        0x080014ac:    920c        ..      STR      r2,[sp,#0x30]
        0x080014ae:    aa0c        ..      ADD      r2,sp,#0x30
        0x080014b0:    9202        ..      STR      r2,[sp,#8]
        0x080014b2:    e00b        ..      B        0x80014cc ; _printf_core + 832
        0x080014b4:    a23b        ;.      ADR      r2,{pc}+0xf0 ; 0x80015a4
        0x080014b6:    e7f9        ..      B        0x80014ac ; _printf_core + 800
        0x080014b8:    465b        [F      MOV      r3,r11
        0x080014ba:    9a00        ..      LDR      r2,[sp,#0]
        0x080014bc:    f7fefeea    ....    BL       __aeabi_uldivmod ; 0x8000294
        0x080014c0:    9b0c        ..      LDR      r3,[sp,#0x30]
        0x080014c2:    5c9b        .\      LDRB     r3,[r3,r2]
        0x080014c4:    9a02        ..      LDR      r2,[sp,#8]
        0x080014c6:    1e52        R.      SUBS     r2,r2,#1
        0x080014c8:    9202        ..      STR      r2,[sp,#8]
        0x080014ca:    7013        .p      STRB     r3,[r2,#0]
        0x080014cc:    ea500201    P...    ORRS     r2,r0,r1
        0x080014d0:    d1f2        ..      BNE      0x80014b8 ; _printf_core + 812
        0x080014d2:    9802        ..      LDR      r0,[sp,#8]
        0x080014d4:    a904        ..      ADD      r1,sp,#0x10
        0x080014d6:    1a08        ..      SUBS     r0,r1,r0
        0x080014d8:    f1000b20    .. .    ADD      r11,r0,#0x20
        0x080014dc:    0760        `.      LSLS     r0,r4,#29
        0x080014de:    d502        ..      BPL      0x80014e6 ; _printf_core + 858
        0x080014e0:    f4243480    $..4    BIC      r4,r4,#0x10000
        0x080014e4:    e000        ..      B        0x80014e8 ; _printf_core + 860
        0x080014e6:    2701        .'      MOVS     r7,#1
        0x080014e8:    455f        _E      CMP      r7,r11
        0x080014ea:    dd02        ..      BLE      0x80014f2 ; _printf_core + 870
        0x080014ec:    eba7000b    ....    SUB      r0,r7,r11
        0x080014f0:    e000        ..      B        0x80014f4 ; _printf_core + 872
        0x080014f2:    2000        .       MOVS     r0,#0
        0x080014f4:    eb00010b    ....    ADD      r1,r0,r11
        0x080014f8:    9000        ..      STR      r0,[sp,#0]
        0x080014fa:    9803        ..      LDR      r0,[sp,#0xc]
        0x080014fc:    4449        ID      ADD      r1,r1,r9
        0x080014fe:    1a40        @.      SUBS     r0,r0,r1
        0x08001500:    9003        ..      STR      r0,[sp,#0xc]
        0x08001502:    03e0        ..      LSLS     r0,r4,#15
        0x08001504:    d406        ..      BMI      0x8001514 ; _printf_core + 904
        0x08001506:    4653        SF      MOV      r3,r10
        0x08001508:    4621        !F      MOV      r1,r4
        0x0800150a:    9a17        ..      LDR      r2,[sp,#0x5c]
        0x0800150c:    9803        ..      LDR      r0,[sp,#0xc]
        0x0800150e:    f000f9a9    ....    BL       _printf_pre_padding ; 0x8001864
        0x08001512:    4405        .D      ADD      r5,r5,r0
        0x08001514:    2700        .'      MOVS     r7,#0
        0x08001516:    e006        ..      B        0x8001526 ; _printf_core + 922
        0x08001518:    a801        ..      ADD      r0,sp,#4
        0x0800151a:    4652        RF      MOV      r2,r10
        0x0800151c:    5dc0        .]      LDRB     r0,[r0,r7]
        0x0800151e:    9917        ..      LDR      r1,[sp,#0x5c]
        0x08001520:    4790        .G      BLX      r2
        0x08001522:    1c6d        m.      ADDS     r5,r5,#1
        0x08001524:    1c7f        ..      ADDS     r7,r7,#1
        0x08001526:    454f        OE      CMP      r7,r9
        0x08001528:    dbf6        ..      BLT      0x8001518 ; _printf_core + 908
        0x0800152a:    03e0        ..      LSLS     r0,r4,#15
        0x0800152c:    d50c        ..      BPL      0x8001548 ; _printf_core + 956
        0x0800152e:    4653        SF      MOV      r3,r10
        0x08001530:    4621        !F      MOV      r1,r4
        0x08001532:    9a17        ..      LDR      r2,[sp,#0x5c]
        0x08001534:    9803        ..      LDR      r0,[sp,#0xc]
        0x08001536:    f000f995    ....    BL       _printf_pre_padding ; 0x8001864
        0x0800153a:    4405        .D      ADD      r5,r5,r0
        0x0800153c:    e004        ..      B        0x8001548 ; _printf_core + 956
        0x0800153e:    2030        0       MOVS     r0,#0x30
        0x08001540:    4652        RF      MOV      r2,r10
        0x08001542:    9917        ..      LDR      r1,[sp,#0x5c]
        0x08001544:    4790        .G      BLX      r2
        0x08001546:    1c6d        m.      ADDS     r5,r5,#1
        0x08001548:    9900        ..      LDR      r1,[sp,#0]
        0x0800154a:    1e48        H.      SUBS     r0,r1,#1
        0x0800154c:    9000        ..      STR      r0,[sp,#0]
        0x0800154e:    2900        .)      CMP      r1,#0
        0x08001550:    dcf5        ..      BGT      0x800153e ; _printf_core + 946
        0x08001552:    e008        ..      B        0x8001566 ; _printf_core + 986
        0x08001554:    9802        ..      LDR      r0,[sp,#8]
        0x08001556:    9902        ..      LDR      r1,[sp,#8]
        0x08001558:    4652        RF      MOV      r2,r10
        0x0800155a:    7800        .x      LDRB     r0,[r0,#0]
        0x0800155c:    1c49        I.      ADDS     r1,r1,#1
        0x0800155e:    9102        ..      STR      r1,[sp,#8]
        0x08001560:    9917        ..      LDR      r1,[sp,#0x5c]
        0x08001562:    4790        .G      BLX      r2
        0x08001564:    1c6d        m.      ADDS     r5,r5,#1
        0x08001566:    f1bb0100    ....    SUBS     r1,r11,#0
        0x0800156a:    f1ab0b01    ....    SUB      r11,r11,#1
        0x0800156e:    dcf1        ..      BGT      0x8001554 ; _printf_core + 968
        0x08001570:    e15b        [.      B        0x800182a ; _printf_core + 1694
        0x08001572:    f000f965    ..e.    BL       _printf_post_padding ; 0x8001840
        0x08001576:    4405        .D      ADD      r5,r5,r0
        0x08001578:    1c76        v.      ADDS     r6,r6,#1
        0x0800157a:    7830        0x      LDRB     r0,[r6,#0]
        0x0800157c:    2800        .(      CMP      r0,#0
        0x0800157e:    f47fae0d    ....    BNE      0x800119c ; _printf_core + 16
        0x08001582:    b019        ..      ADD      sp,sp,#0x64
        0x08001584:    4628        (F      MOV      r0,r5
        0x08001586:    e8bd8ff0    ....    POP      {r4-r11,pc}
    $d
        0x0800158a:    0000        ..      DCW    0
        0x0800158c:    00012809    .(..    DCD    75785
        0x08001590:    33323130    0123    DCD    858927408
        0x08001594:    37363534    4567    DCD    926299444
        0x08001598:    62613938    89ab    DCD    1650538808
        0x0800159c:    66656463    cdef    DCD    1717920867
        0x080015a0:    00000000    ....    DCD    0
        0x080015a4:    33323130    0123    DCD    858927408
        0x080015a8:    37363534    4567    DCD    926299444
        0x080015ac:    42413938    89AB    DCD    1111570744
        0x080015b0:    46454443    CDEF    DCD    1178944579
        0x080015b4:    00000000    ....    DCD    0
    $t
        0x080015b8:    0760        `.      LSLS     r0,r4,#29
        0x080015ba:    d400        ..      BMI      0x80015be ; _printf_core + 1074
        0x080015bc:    2706        .'      MOVS     r7,#6
        0x080015be:    f1080007    ....    ADD      r0,r8,#7
        0x080015c2:    f0200007     ...    BIC      r0,r0,#7
        0x080015c6:    e8f02302    ...#    LDRD     r2,r3,[r0],#8
        0x080015ca:    4680        .F      MOV      r8,r0
        0x080015cc:    f0034c00    ...L    AND      r12,r3,#0x80000000
        0x080015d0:    ea5f000c    _...    MOVS     r0,r12
        0x080015d4:    d001        ..      BEQ      0x80015da ; _printf_core + 1102
        0x080015d6:    a097        ..      ADR      r0,{pc}+0x25e ; 0x8001834
        0x080015d8:    e009        ..      B        0x80015ee ; _printf_core + 1122
        0x080015da:    0520         .      LSLS     r0,r4,#20
        0x080015dc:    d501        ..      BPL      0x80015e2 ; _printf_core + 1110
        0x080015de:    a096        ..      ADR      r0,{pc}+0x25a ; 0x8001838
        0x080015e0:    e005        ..      B        0x80015ee ; _printf_core + 1122
        0x080015e2:    07e0        ..      LSLS     r0,r4,#31
        0x080015e4:    d001        ..      BEQ      0x80015ea ; _printf_core + 1118
        0x080015e6:    a095        ..      ADR      r0,{pc}+0x256 ; 0x800183c
        0x080015e8:    e001        ..      B        0x80015ee ; _printf_core + 1122
        0x080015ea:    f2af004c    ..L.    ADR      r0,{pc}-0x4a ; 0x80015a0
        0x080015ee:    9013        ..      STR      r0,[sp,#0x4c]
        0x080015f0:    7830        0x      LDRB     r0,[r6,#0]
        0x080015f2:    f0234300    #..C    BIC      r3,r3,#0x80000000
        0x080015f6:    2865        e(      CMP      r0,#0x65
        0x080015f8:    d00c        ..      BEQ      0x8001614 ; _printf_core + 1160
        0x080015fa:    dc06        ..      BGT      0x800160a ; _printf_core + 1150
        0x080015fc:    2845        E(      CMP      r0,#0x45
        0x080015fe:    d009        ..      BEQ      0x8001614 ; _printf_core + 1160
        0x08001600:    2846        F(      CMP      r0,#0x46
        0x08001602:    d01d        ..      BEQ      0x8001640 ; _printf_core + 1204
        0x08001604:    2847        G(      CMP      r0,#0x47
        0x08001606:    d17f        ..      BNE      0x8001708 ; _printf_core + 1404
        0x08001608:    e03b        ;.      B        0x8001682 ; _printf_core + 1270
        0x0800160a:    2866        f(      CMP      r0,#0x66
        0x0800160c:    d018        ..      BEQ      0x8001640 ; _printf_core + 1204
        0x0800160e:    2867        g(      CMP      r0,#0x67
        0x08001610:    d17a        z.      BNE      0x8001708 ; _printf_core + 1404
        0x08001612:    e036        6.      B        0x8001682 ; _printf_core + 1270
        0x08001614:    2100        .!      MOVS     r1,#0
        0x08001616:    2f11        ./      CMP      r7,#0x11
        0x08001618:    db01        ..      BLT      0x800161e ; _printf_core + 1170
        0x0800161a:    2011        .       MOVS     r0,#0x11
        0x0800161c:    e000        ..      B        0x8001620 ; _printf_core + 1172
        0x0800161e:    1c78        x.      ADDS     r0,r7,#1
        0x08001620:    e9cd0100    ....    STRD     r0,r1,[sp,#0]
        0x08001624:    a904        ..      ADD      r1,sp,#0x10
        0x08001626:    a80c        ..      ADD      r0,sp,#0x30
        0x08001628:    f7fffcee    ....    BL       _fp_digits ; 0x8001008
        0x0800162c:    e9dd010d    ....    LDRD     r0,r1,[sp,#0x34]
        0x08001630:    9a0c        ..      LDR      r2,[sp,#0x30]
        0x08001632:    f04f0b00    O...    MOV      r11,#0
        0x08001636:    f1070901    ....    ADD      r9,r7,#1
        0x0800163a:    9210        ..      STR      r2,[sp,#0x40]
        0x0800163c:    9100        ..      STR      r1,[sp,#0]
        0x0800163e:    e04e        N.      B        0x80016de ; _printf_core + 1362
        0x08001640:    f04f4000    O..@    MOV      r0,#0x80000000
        0x08001644:    9700        ..      STR      r7,[sp,#0]
        0x08001646:    e9cd1001    ....    STRD     r1,r0,[sp,#4]
        0x0800164a:    a904        ..      ADD      r1,sp,#0x10
        0x0800164c:    a80c        ..      ADD      r0,sp,#0x30
        0x0800164e:    f7fffcdb    ....    BL       _fp_digits ; 0x8001008
        0x08001652:    e9dd020d    ....    LDRD     r0,r2,[sp,#0x34]
        0x08001656:    9b0c        ..      LDR      r3,[sp,#0x30]
        0x08001658:    990f        ..      LDR      r1,[sp,#0x3c]
        0x0800165a:    f04f0b00    O...    MOV      r11,#0
        0x0800165e:    4691        .F      MOV      r9,r2
        0x08001660:    9310        ..      STR      r3,[sp,#0x40]
        0x08001662:    9200        ..      STR      r2,[sp,#0]
        0x08001664:    b911        ..      CBNZ     r1,0x800166c ; _printf_core + 1248
        0x08001666:    1c79        y.      ADDS     r1,r7,#1
        0x08001668:    eb000901    ....    ADD      r9,r0,r1
        0x0800166c:    ebb70009    ....    SUBS     r0,r7,r9
        0x08001670:    d403        ..      BMI      0x800167a ; _printf_core + 1262
        0x08001672:    f1c03bff    ...;    RSB      r11,r0,#0xffffffff
        0x08001676:    f1070901    ....    ADD      r9,r7,#1
        0x0800167a:    eba90007    ....    SUB      r0,r9,r7
        0x0800167e:    9001        ..      STR      r0,[sp,#4]
        0x08001680:    e042        B.      B        0x8001708 ; _printf_core + 1404
        0x08001682:    2f01        ./      CMP      r7,#1
        0x08001684:    da00        ..      BGE      0x8001688 ; _printf_core + 1276
        0x08001686:    2701        .'      MOVS     r7,#1
        0x08001688:    2100        .!      MOVS     r1,#0
        0x0800168a:    2f11        ./      CMP      r7,#0x11
        0x0800168c:    dd01        ..      BLE      0x8001692 ; _printf_core + 1286
        0x0800168e:    2011        .       MOVS     r0,#0x11
        0x08001690:    e000        ..      B        0x8001694 ; _printf_core + 1288
        0x08001692:    4638        8F      MOV      r0,r7
        0x08001694:    e9cd0100    ....    STRD     r0,r1,[sp,#0]
        0x08001698:    a904        ..      ADD      r1,sp,#0x10
        0x0800169a:    a80c        ..      ADD      r0,sp,#0x30
        0x0800169c:    f7fffcb4    ....    BL       _fp_digits ; 0x8001008
        0x080016a0:    e9dd010d    ....    LDRD     r0,r1,[sp,#0x34]
        0x080016a4:    9a0c        ..      LDR      r2,[sp,#0x30]
        0x080016a6:    9100        ..      STR      r1,[sp,#0]
        0x080016a8:    f04f0b00    O...    MOV      r11,#0
        0x080016ac:    46b9        .F      MOV      r9,r7
        0x080016ae:    9210        ..      STR      r2,[sp,#0x40]
        0x080016b0:    0721        !.      LSLS     r1,r4,#28
        0x080016b2:    d40f        ..      BMI      0x80016d4 ; _printf_core + 1352
        0x080016b4:    9a00        ..      LDR      r2,[sp,#0]
        0x080016b6:    454a        JE      CMP      r2,r9
        0x080016b8:    da03        ..      BGE      0x80016c2 ; _printf_core + 1334
        0x080016ba:    4691        .F      MOV      r9,r2
        0x080016bc:    e001        ..      B        0x80016c2 ; _printf_core + 1334
        0x080016be:    f1a90901    ....    SUB      r9,r9,#1
        0x080016c2:    f1b90f01    ....    CMP      r9,#1
        0x080016c6:    dd05        ..      BLE      0x80016d4 ; _printf_core + 1352
        0x080016c8:    9a10        ..      LDR      r2,[sp,#0x40]
        0x080016ca:    f1a90101    ....    SUB      r1,r9,#1
        0x080016ce:    5c51        Q\      LDRB     r1,[r2,r1]
        0x080016d0:    2930        0)      CMP      r1,#0x30
        0x080016d2:    d0f4        ..      BEQ      0x80016be ; _printf_core + 1330
        0x080016d4:    42b8        .B      CMP      r0,r7
        0x080016d6:    da02        ..      BGE      0x80016de ; _printf_core + 1362
        0x080016d8:    f1100f04    ....    CMN      r0,#4
        0x080016dc:    da03        ..      BGE      0x80016e6 ; _printf_core + 1370
        0x080016de:    2101        .!      MOVS     r1,#1
        0x080016e0:    e9cd1001    ....    STRD     r1,r0,[sp,#4]
        0x080016e4:    e010        ..      B        0x8001708 ; _printf_core + 1404
        0x080016e6:    2800        .(      CMP      r0,#0
        0x080016e8:    dc03        ..      BGT      0x80016f2 ; _printf_core + 1382
        0x080016ea:    4483        .D      ADD      r11,r11,r0
        0x080016ec:    eba90100    ....    SUB      r1,r9,r0
        0x080016f0:    e002        ..      B        0x80016f8 ; _printf_core + 1388
        0x080016f2:    1c41        A.      ADDS     r1,r0,#1
        0x080016f4:    4549        IE      CMP      r1,r9
        0x080016f6:    dd00        ..      BLE      0x80016fa ; _printf_core + 1390
        0x080016f8:    4689        .F      MOV      r9,r1
        0x080016fa:    eba0000b    ....    SUB      r0,r0,r11
        0x080016fe:    1c40        @.      ADDS     r0,r0,#1
        0x08001700:    9001        ..      STR      r0,[sp,#4]
        0x08001702:    f04f4000    O..@    MOV      r0,#0x80000000
        0x08001706:    9002        ..      STR      r0,[sp,#8]
        0x08001708:    0720         .      LSLS     r0,r4,#28
        0x0800170a:    d405        ..      BMI      0x8001718 ; _printf_core + 1420
        0x0800170c:    9801        ..      LDR      r0,[sp,#4]
        0x0800170e:    4548        HE      CMP      r0,r9
        0x08001710:    db02        ..      BLT      0x8001718 ; _printf_core + 1420
        0x08001712:    f04f30ff    O..0    MOV      r0,#0xffffffff
        0x08001716:    9001        ..      STR      r0,[sp,#4]
        0x08001718:    2000        .       MOVS     r0,#0
        0x0800171a:    f88d004b    ..K.    STRB     r0,[sp,#0x4b]
        0x0800171e:    9802        ..      LDR      r0,[sp,#8]
        0x08001720:    f10d074b    ..K.    ADD      r7,sp,#0x4b
        0x08001724:    f1b04f00    ...O    CMP      r0,#0x80000000
        0x08001728:    d025        %.      BEQ      0x8001776 ; _printf_core + 1514
        0x0800172a:    2002        .       MOVS     r0,#2
        0x0800172c:    900c        ..      STR      r0,[sp,#0x30]
        0x0800172e:    202b        +       MOVS     r0,#0x2b
        0x08001730:    900d        ..      STR      r0,[sp,#0x34]
        0x08001732:    9802        ..      LDR      r0,[sp,#8]
        0x08001734:    2800        .(      CMP      r0,#0
        0x08001736:    da0c        ..      BGE      0x8001752 ; _printf_core + 1478
        0x08001738:    4240        @B      RSBS     r0,r0,#0
        0x0800173a:    9002        ..      STR      r0,[sp,#8]
        0x0800173c:    202d        -       MOVS     r0,#0x2d
        0x0800173e:    900d        ..      STR      r0,[sp,#0x34]
        0x08001740:    e007        ..      B        0x8001752 ; _printf_core + 1478
        0x08001742:    210a        .!      MOVS     r1,#0xa
        0x08001744:    9802        ..      LDR      r0,[sp,#8]
        0x08001746:    f7fefdd6    ....    BL       __aeabi_uidiv ; 0x80002f6
        0x0800174a:    3130        01      ADDS     r1,r1,#0x30
        0x0800174c:    9002        ..      STR      r0,[sp,#8]
        0x0800174e:    f8071d01    ....    STRB     r1,[r7,#-1]!
        0x08001752:    990c        ..      LDR      r1,[sp,#0x30]
        0x08001754:    1e48        H.      SUBS     r0,r1,#1
        0x08001756:    900c        ..      STR      r0,[sp,#0x30]
        0x08001758:    2900        .)      CMP      r1,#0
        0x0800175a:    dcf2        ..      BGT      0x8001742 ; _printf_core + 1462
        0x0800175c:    9802        ..      LDR      r0,[sp,#8]
        0x0800175e:    2800        .(      CMP      r0,#0
        0x08001760:    d1ef        ..      BNE      0x8001742 ; _printf_core + 1462
        0x08001762:    1e79        y.      SUBS     r1,r7,#1
        0x08001764:    980d        ..      LDR      r0,[sp,#0x34]
        0x08001766:    7008        .p      STRB     r0,[r1,#0]
        0x08001768:    7830        0x      LDRB     r0,[r6,#0]
        0x0800176a:    f0000020    .. .    AND      r0,r0,#0x20
        0x0800176e:    f0400045    @.E.    ORR      r0,r0,#0x45
        0x08001772:    f8070d02    ....    STRB     r0,[r7,#-2]!
        0x08001776:    a811        ..      ADD      r0,sp,#0x44
        0x08001778:    1bc0        ..      SUBS     r0,r0,r7
        0x0800177a:    1dc0        ..      ADDS     r0,r0,#7
        0x0800177c:    9002        ..      STR      r0,[sp,#8]
        0x0800177e:    9813        ..      LDR      r0,[sp,#0x4c]
        0x08001780:    7800        .x      LDRB     r0,[r0,#0]
        0x08001782:    b100        ..      CBZ      r0,0x8001786 ; _printf_core + 1530
        0x08001784:    2001        .       MOVS     r0,#1
        0x08001786:    eb000109    ....    ADD      r1,r0,r9
        0x0800178a:    9801        ..      LDR      r0,[sp,#4]
        0x0800178c:    eb0171e0    ...q    ADD      r1,r1,r0,ASR #31
        0x08001790:    9802        ..      LDR      r0,[sp,#8]
        0x08001792:    4401        .D      ADD      r1,r1,r0
        0x08001794:    9803        ..      LDR      r0,[sp,#0xc]
        0x08001796:    1a40        @.      SUBS     r0,r0,r1
        0x08001798:    1e40        @.      SUBS     r0,r0,#1
        0x0800179a:    9003        ..      STR      r0,[sp,#0xc]
        0x0800179c:    03e0        ..      LSLS     r0,r4,#15
        0x0800179e:    d406        ..      BMI      0x80017ae ; _printf_core + 1570
        0x080017a0:    4653        SF      MOV      r3,r10
        0x080017a2:    4621        !F      MOV      r1,r4
        0x080017a4:    9a17        ..      LDR      r2,[sp,#0x5c]
        0x080017a6:    9803        ..      LDR      r0,[sp,#0xc]
        0x080017a8:    f000f85c    ..\.    BL       _printf_pre_padding ; 0x8001864
        0x080017ac:    4405        .D      ADD      r5,r5,r0
        0x080017ae:    9813        ..      LDR      r0,[sp,#0x4c]
        0x080017b0:    7800        .x      LDRB     r0,[r0,#0]
        0x080017b2:    b118        ..      CBZ      r0,0x80017bc ; _printf_core + 1584
        0x080017b4:    4652        RF      MOV      r2,r10
        0x080017b6:    9917        ..      LDR      r1,[sp,#0x5c]
        0x080017b8:    4790        .G      BLX      r2
        0x080017ba:    1c6d        m.      ADDS     r5,r5,#1
        0x080017bc:    03e0        ..      LSLS     r0,r4,#15
        0x080017be:    d523        #.      BPL      0x8001808 ; _printf_core + 1660
        0x080017c0:    4653        SF      MOV      r3,r10
        0x080017c2:    4621        !F      MOV      r1,r4
        0x080017c4:    9a17        ..      LDR      r2,[sp,#0x5c]
        0x080017c6:    9803        ..      LDR      r0,[sp,#0xc]
        0x080017c8:    f000f84c    ..L.    BL       _printf_pre_padding ; 0x8001864
        0x080017cc:    4405        .D      ADD      r5,r5,r0
        0x080017ce:    e01b        ..      B        0x8001808 ; _printf_core + 1660
        0x080017d0:    f1bb0f00    ....    CMP      r11,#0
        0x080017d4:    db07        ..      BLT      0x80017e6 ; _printf_core + 1626
        0x080017d6:    9800        ..      LDR      r0,[sp,#0]
        0x080017d8:    4558        XE      CMP      r0,r11
        0x080017da:    dd04        ..      BLE      0x80017e6 ; _printf_core + 1626
        0x080017dc:    9810        ..      LDR      r0,[sp,#0x40]
        0x080017de:    9917        ..      LDR      r1,[sp,#0x5c]
        0x080017e0:    f810000b    ....    LDRB     r0,[r0,r11]
        0x080017e4:    e001        ..      B        0x80017ea ; _printf_core + 1630
        0x080017e6:    9917        ..      LDR      r1,[sp,#0x5c]
        0x080017e8:    2030        0       MOVS     r0,#0x30
        0x080017ea:    4652        RF      MOV      r2,r10
        0x080017ec:    4790        .G      BLX      r2
        0x080017ee:    9801        ..      LDR      r0,[sp,#4]
        0x080017f0:    f10b0b01    ....    ADD      r11,r11,#1
        0x080017f4:    1e40        @.      SUBS     r0,r0,#1
        0x080017f6:    f1050501    ....    ADD      r5,r5,#1
        0x080017fa:    9001        ..      STR      r0,[sp,#4]
        0x080017fc:    d104        ..      BNE      0x8001808 ; _printf_core + 1660
        0x080017fe:    202e        .       MOVS     r0,#0x2e
        0x08001800:    4652        RF      MOV      r2,r10
        0x08001802:    9917        ..      LDR      r1,[sp,#0x5c]
        0x08001804:    4790        .G      BLX      r2
        0x08001806:    1c6d        m.      ADDS     r5,r5,#1
        0x08001808:    f1b90100    ....    SUBS     r1,r9,#0
        0x0800180c:    f1a90901    ....    SUB      r9,r9,#1
        0x08001810:    dcde        ..      BGT      0x80017d0 ; _printf_core + 1604
        0x08001812:    e005        ..      B        0x8001820 ; _printf_core + 1684
        0x08001814:    f8170b01    ....    LDRB     r0,[r7],#1
        0x08001818:    4652        RF      MOV      r2,r10
        0x0800181a:    9917        ..      LDR      r1,[sp,#0x5c]
        0x0800181c:    4790        .G      BLX      r2
        0x0800181e:    1c6d        m.      ADDS     r5,r5,#1
        0x08001820:    9902        ..      LDR      r1,[sp,#8]
        0x08001822:    1e48        H.      SUBS     r0,r1,#1
        0x08001824:    9002        ..      STR      r0,[sp,#8]
        0x08001826:    2900        .)      CMP      r1,#0
        0x08001828:    dcf4        ..      BGT      0x8001814 ; _printf_core + 1672
        0x0800182a:    4653        SF      MOV      r3,r10
        0x0800182c:    4621        !F      MOV      r1,r4
        0x0800182e:    9a17        ..      LDR      r2,[sp,#0x5c]
        0x08001830:    9803        ..      LDR      r0,[sp,#0xc]
        0x08001832:    e69e        ..      B        0x8001572 ; _printf_core + 998
    $d
        0x08001834:    0000002d    -...    DCD    45
        0x08001838:    0000002b    +...    DCD    43
        0x0800183c:    00000020     ...    DCD    32
    $t
    i._printf_post_padding
    _printf_post_padding
        0x08001840:    e92d41f0    -..A    PUSH     {r4-r8,lr}
        0x08001844:    4604        .F      MOV      r4,r0
        0x08001846:    2500        .%      MOVS     r5,#0
        0x08001848:    461e        .F      MOV      r6,r3
        0x0800184a:    4617        .F      MOV      r7,r2
        0x0800184c:    0488        ..      LSLS     r0,r1,#18
        0x0800184e:    d404        ..      BMI      0x800185a ; _printf_post_padding + 26
        0x08001850:    e005        ..      B        0x800185e ; _printf_post_padding + 30
        0x08001852:    4639        9F      MOV      r1,r7
        0x08001854:    2020                MOVS     r0,#0x20
        0x08001856:    47b0        .G      BLX      r6
        0x08001858:    1c6d        m.      ADDS     r5,r5,#1
        0x0800185a:    1e64        d.      SUBS     r4,r4,#1
        0x0800185c:    d5f9        ..      BPL      0x8001852 ; _printf_post_padding + 18
        0x0800185e:    4628        (F      MOV      r0,r5
        0x08001860:    e8bd81f0    ....    POP      {r4-r8,pc}
    i._printf_pre_padding
    _printf_pre_padding
        0x08001864:    e92d41f0    -..A    PUSH     {r4-r8,lr}
        0x08001868:    4604        .F      MOV      r4,r0
        0x0800186a:    2500        .%      MOVS     r5,#0
        0x0800186c:    461e        .F      MOV      r6,r3
        0x0800186e:    4690        .F      MOV      r8,r2
        0x08001870:    03c8        ..      LSLS     r0,r1,#15
        0x08001872:    d501        ..      BPL      0x8001878 ; _printf_pre_padding + 20
        0x08001874:    2730        0'      MOVS     r7,#0x30
        0x08001876:    e000        ..      B        0x800187a ; _printf_pre_padding + 22
        0x08001878:    2720         '      MOVS     r7,#0x20
        0x0800187a:    0488        ..      LSLS     r0,r1,#18
        0x0800187c:    d504        ..      BPL      0x8001888 ; _printf_pre_padding + 36
        0x0800187e:    e005        ..      B        0x800188c ; _printf_pre_padding + 40
        0x08001880:    4641        AF      MOV      r1,r8
        0x08001882:    4638        8F      MOV      r0,r7
        0x08001884:    47b0        .G      BLX      r6
        0x08001886:    1c6d        m.      ADDS     r5,r5,#1
        0x08001888:    1e64        d.      SUBS     r4,r4,#1
        0x0800188a:    d5f9        ..      BPL      0x8001880 ; _printf_pre_padding + 28
        0x0800188c:    4628        (F      MOV      r0,r5
        0x0800188e:    e8bd81f0    ....    POP      {r4-r8,pc}
    i.copy_memory
    copy_memory
        0x08001892:    b570        p.      PUSH     {r4-r6,lr}
        0x08001894:    4603        .F      MOV      r3,r0
        0x08001896:    4618        .F      MOV      r0,r3
        0x08001898:    460c        .F      MOV      r4,r1
        0x0800189a:    189d        ..      ADDS     r5,r3,r2
        0x0800189c:    e001        ..      B        0x80018a2 ; copy_memory + 16
        0x0800189e:    c840        @.      LDM      r0!,{r6}
        0x080018a0:    c440        @.      STM      r4!,{r6}
        0x080018a2:    42a8        .B      CMP      r0,r5
        0x080018a4:    d3fb        ..      BCC      0x800189e ; copy_memory + 12
        0x080018a6:    bd70        p.      POP      {r4-r6,pc}
    i.fputc
    fputc
        0x080018a8:    b513        ..      PUSH     {r0,r1,r4,lr}
        0x080018aa:    460c        .F      MOV      r4,r1
        0x080018ac:    f64f73ff    O..s    MOV      r3,#0xffff
        0x080018b0:    2201        ."      MOVS     r2,#1
        0x080018b2:    4669        iF      MOV      r1,sp
        0x080018b4:    4802        .H      LDR      r0,[pc,#8] ; [0x80018c0] = 0x20000054
        0x080018b6:    f7fffa40    ..@.    BL       HAL_UART_Transmit ; 0x8000d3a
        0x080018ba:    9800        ..      LDR      r0,[sp,#0]
        0x080018bc:    bd1c        ..      POP      {r2-r4,pc}
    $d
        0x080018be:    0000        ..      DCW    0
        0x080018c0:    20000054    T..     DCD    536870996
    $t
    i.main
    main
        0x080018c4:    4813        .H      LDR      r0,[pc,#76] ; [0x8001914] = 0x20000054
        0x080018c6:    4914        .I      LDR      r1,[pc,#80] ; [0x8001918] = 0x20000000
        0x080018c8:    1a40        @.      SUBS     r0,r0,r1
        0x080018ca:    1082        ..      ASRS     r2,r0,#2
        0x080018cc:    4813        .H      LDR      r0,[pc,#76] ; [0x800191c] = 0x8001cb8
        0x080018ce:    f7ffffe0    ....    BL       copy_memory ; 0x8001892
        0x080018d2:    f7feffa7    ....    BL       HAL_Init ; 0x8000824
        0x080018d6:    4812        .H      LDR      r0,[pc,#72] ; [0x8001920] = 0x20000000
        0x080018d8:    7801        .x      LDRB     r1,[r0,#0]
        0x080018da:    a012        ..      ADR      r0,{pc}+0x4a ; 0x8001924
        0x080018dc:    f7fffb58    ..X.    BL       __0printf ; 0x8000f90
        0x080018e0:    e017        ..      B        0x8001912 ; main + 78
        0x080018e2:    490e        .I      LDR      r1,[pc,#56] ; [0x800191c] = 0x8001cb8
        0x080018e4:    a011        ..      ADR      r0,{pc}+0x48 ; 0x800192c
        0x080018e6:    f7fffb53    ..S.    BL       __0printf ; 0x8000f90
        0x080018ea:    4918        .I      LDR      r1,[pc,#96] ; [0x800194c] = 0x8001d0c
        0x080018ec:    a018        ..      ADR      r0,{pc}+0x64 ; 0x8001950
        0x080018ee:    f7fffb4f    ..O.    BL       __0printf ; 0x8000f90
        0x080018f2:    491f        .I      LDR      r1,[pc,#124] ; [0x8001970] = 0x20000054
        0x080018f4:    a01f        ..      ADR      r0,{pc}+0x80 ; 0x8001974
        0x080018f6:    f7fffb4b    ..K.    BL       __0printf ; 0x8000f90
        0x080018fa:    4927        'I      LDR      r1,[pc,#156] ; [0x8001998] = 0x200009a8
        0x080018fc:    a027        '.      ADR      r0,{pc}+0xa0 ; 0x800199c
        0x080018fe:    f7fffb47    ..G.    BL       __0printf ; 0x8000f90
        0x08001902:    4905        .I      LDR      r1,[pc,#20] ; [0x8001918] = 0x20000000
        0x08001904:    a02e        ..      ADR      r0,{pc}+0xbc ; 0x80019c0
        0x08001906:    f7fffb43    ..C.    BL       __0printf ; 0x8000f90
        0x0800190a:    f44f707a    O.zp    MOV      r0,#0x3e8
        0x0800190e:    f7feff63    ..c.    BL       HAL_Delay ; 0x80007d8
        0x08001912:    e7e6        ..      B        0x80018e2 ; main + 30
    $d
        0x08001914:    20000054    T..     DCD    536870996
        0x08001918:    20000000    ...     DCD    536870912
        0x0800191c:    08001cb8    ....    DCD    134225080
        0x08001920:    20000000    ...     DCD    536870912
        0x08001924:    0a0d6425    %d..    DCD    168649765
        0x08001928:    00000000    ....    DCD    0
        0x0800192c:    64616f4c    Load    DCD    1684107084
        0x08001930:    57522424    $$RW    DCD    1465000996
        0x08001934:    4152495f    _IRA    DCD    1095911775
        0x08001938:    2424314d    M1$$    DCD    606351693
        0x0800193c:    65736142    Base    DCD    1702060354
        0x08001940:    305b3a20     :[0    DCD    811285024
        0x08001944:    5d782578    x%x]    DCD    1568155000
        0x08001948:    00000a0d    ....    DCD    2573
        0x0800194c:    08001d0c    ....    DCD    134225164
        0x08001950:    64616f4c    Load    DCD    1684107084
        0x08001954:    57522424    $$RW    DCD    1465000996
        0x08001958:    4152495f    _IRA    DCD    1095911775
        0x0800195c:    2424314d    M1$$    DCD    606351693
        0x08001960:    696d694c    Limi    DCD    1768778060
        0x08001964:    305b3a74    t:[0    DCD    811285108
        0x08001968:    5d782578    x%x]    DCD    1568155000
        0x0800196c:    00000a0d    ....    DCD    2573
        0x08001970:    20000054    T..     DCD    536870996
        0x08001974:    67616d49    Imag    DCD    1734438217
        0x08001978:    52242465    e$$R    DCD    1378100325
        0x0800197c:    52495f57    W_IR    DCD    1380540247
        0x08001980:    24314d41    AM1$    DCD    607210817
        0x08001984:    24495a24    $ZI$    DCD    608786980
        0x08001988:    73614224    $Bas    DCD    1935753764
        0x0800198c:    5b3a2065    e :[    DCD    1530536037
        0x08001990:    78257830    0x%x    DCD    2015721520
        0x08001994:    000a0d5d    ]...    DCD    658781
        0x08001998:    200009a8    ...     DCD    536873384
        0x0800199c:    67616d49    Imag    DCD    1734438217
        0x080019a0:    52242465    e$$R    DCD    1378100325
        0x080019a4:    52495f57    W_IR    DCD    1380540247
        0x080019a8:    24314d41    AM1$    DCD    607210817
        0x080019ac:    24495a24    $ZI$    DCD    608786980
        0x080019b0:    6d694c24    $Lim    DCD    1835617316
        0x080019b4:    5b3a7469    it:[    DCD    1530557545
        0x080019b8:    78257830    0x%x    DCD    2015721520
        0x080019bc:    000a0d5d    ]...    DCD    658781
        0x080019c0:    67616d49    Imag    DCD    1734438217
        0x080019c4:    52242465    e$$R    DCD    1378100325
        0x080019c8:    52495f57    W_IR    DCD    1380540247
        0x080019cc:    24314d41    AM1$    DCD    607210817
        0x080019d0:    24575224    $RW$    DCD    609702436
        0x080019d4:    73614224    $Bas    DCD    1935753764
        0x080019d8:    5b3a2065    e :[    DCD    1530536037
        0x080019dc:    78257830    0x%x    DCD    2015721520
        0x080019e0:    000a0d5d    ]...    DCD    658781
    $t
    i.prvResetNextTaskUnblockTime
    prvResetNextTaskUnblockTime
        0x080019e4:    490a        .I      LDR      r1,[pc,#40] ; [0x8001a10] = 0x20000018
        0x080019e6:    6809        .h      LDR      r1,[r1,#0]
        0x080019e8:    6809        .h      LDR      r1,[r1,#0]
        0x080019ea:    b909        ..      CBNZ     r1,0x80019f0 ; prvResetNextTaskUnblockTime + 12
        0x080019ec:    2101        .!      MOVS     r1,#1
        0x080019ee:    e000        ..      B        0x80019f2 ; prvResetNextTaskUnblockTime + 14
        0x080019f0:    2100        .!      MOVS     r1,#0
        0x080019f2:    b121        !.      CBZ      r1,0x80019fe ; prvResetNextTaskUnblockTime + 26
        0x080019f4:    f04f31ff    O..1    MOV      r1,#0xffffffff
        0x080019f8:    4a06        .J      LDR      r2,[pc,#24] ; [0x8001a14] = 0x20000044
        0x080019fa:    6011        .`      STR      r1,[r2,#0]
        0x080019fc:    e006        ..      B        0x8001a0c ; prvResetNextTaskUnblockTime + 40
        0x080019fe:    4904        .I      LDR      r1,[pc,#16] ; [0x8001a10] = 0x20000018
        0x08001a00:    6809        .h      LDR      r1,[r1,#0]
        0x08001a02:    68c9        .h      LDR      r1,[r1,#0xc]
        0x08001a04:    68c8        .h      LDR      r0,[r1,#0xc]
        0x08001a06:    4a03        .J      LDR      r2,[pc,#12] ; [0x8001a14] = 0x20000044
        0x08001a08:    6841        Ah      LDR      r1,[r0,#4]
        0x08001a0a:    6011        .`      STR      r1,[r2,#0]
        0x08001a0c:    4770        pG      BX       lr
    $d
        0x08001a0e:    0000        ..      DCW    0
        0x08001a10:    20000018    ...     DCD    536870936
        0x08001a14:    20000044    D..     DCD    536870980
    $t
    i.uxListRemove
    uxListRemove
        0x08001a18:    4601        .F      MOV      r1,r0
        0x08001a1a:    690a        .i      LDR      r2,[r1,#0x10]
        0x08001a1c:    e9d13001    ...0    LDRD     r3,r0,[r1,#4]
        0x08001a20:    6098        .`      STR      r0,[r3,#8]
        0x08001a22:    e9d10301    ....    LDRD     r0,r3,[r1,#4]
        0x08001a26:    6058        X`      STR      r0,[r3,#4]
        0x08001a28:    6850        Ph      LDR      r0,[r2,#4]
        0x08001a2a:    4288        .B      CMP      r0,r1
        0x08001a2c:    d101        ..      BNE      0x8001a32 ; uxListRemove + 26
        0x08001a2e:    6888        .h      LDR      r0,[r1,#8]
        0x08001a30:    6050        P`      STR      r0,[r2,#4]
        0x08001a32:    2000        .       MOVS     r0,#0
        0x08001a34:    6108        .a      STR      r0,[r1,#0x10]
        0x08001a36:    6810        .h      LDR      r0,[r2,#0]
        0x08001a38:    1e40        @.      SUBS     r0,r0,#1
        0x08001a3a:    6010        .`      STR      r0,[r2,#0]
        0x08001a3c:    6810        .h      LDR      r0,[r2,#0]
        0x08001a3e:    4770        pG      BX       lr
    i.vListInsertEnd
    vListInsertEnd
        0x08001a40:    6842        Bh      LDR      r2,[r0,#4]
        0x08001a42:    604a        J`      STR      r2,[r1,#4]
        0x08001a44:    6893        .h      LDR      r3,[r2,#8]
        0x08001a46:    608b        .`      STR      r3,[r1,#8]
        0x08001a48:    6893        .h      LDR      r3,[r2,#8]
        0x08001a4a:    6059        Y`      STR      r1,[r3,#4]
        0x08001a4c:    6091        .`      STR      r1,[r2,#8]
        0x08001a4e:    6108        .a      STR      r0,[r1,#0x10]
        0x08001a50:    6803        .h      LDR      r3,[r0,#0]
        0x08001a52:    1c5b        [.      ADDS     r3,r3,#1
        0x08001a54:    6003        .`      STR      r3,[r0,#0]
        0x08001a56:    4770        pG      BX       lr
    i.vTaskSwitchContext
    vTaskSwitchContext
        0x08001a58:    481e        .H      LDR      r0,[pc,#120] ; [0x8001ad4] = 0x2000004c
        0x08001a5a:    6800        .h      LDR      r0,[r0,#0]
        0x08001a5c:    b118        ..      CBZ      r0,0x8001a66 ; vTaskSwitchContext + 14
        0x08001a5e:    2001        .       MOVS     r0,#1
        0x08001a60:    491d        .I      LDR      r1,[pc,#116] ; [0x8001ad8] = 0x20000038
        0x08001a62:    6008        .`      STR      r0,[r1,#0]
        0x08001a64:    e034        4.      B        0x8001ad0 ; vTaskSwitchContext + 120
        0x08001a66:    2000        .       MOVS     r0,#0
        0x08001a68:    491b        .I      LDR      r1,[pc,#108] ; [0x8001ad8] = 0x20000038
        0x08001a6a:    6008        .`      STR      r0,[r1,#0]
        0x08001a6c:    481b        .H      LDR      r0,[pc,#108] ; [0x8001adc] = 0x2000002c
        0x08001a6e:    6801        .h      LDR      r1,[r0,#0]
        0x08001a70:    e00c        ..      B        0x8001a8c ; vTaskSwitchContext + 52
        0x08001a72:    b951        Q.      CBNZ     r1,0x8001a8a ; vTaskSwitchContext + 50
        0x08001a74:    bf00        ..      NOP      
        0x08001a76:    2050        P       MOVS     r0,#0x50
        0x08001a78:    f3808811    ....    MSR      BASEPRI,r0
        0x08001a7c:    f3bf8f4f    ..O.    DSB      
        0x08001a80:    f3bf8f6f    ..o.    ISB      
        0x08001a84:    bf00        ..      NOP      
        0x08001a86:    bf00        ..      NOP      
        0x08001a88:    e7fe        ..      B        0x8001a88 ; vTaskSwitchContext + 48
        0x08001a8a:    1e49        I.      SUBS     r1,r1,#1
        0x08001a8c:    eb010081    ....    ADD      r0,r1,r1,LSL #2
        0x08001a90:    4a13        .J      LDR      r2,[pc,#76] ; [0x8001ae0] = 0x200000e0
        0x08001a92:    f8520020    R. .    LDR      r0,[r2,r0,LSL #2]
        0x08001a96:    b908        ..      CBNZ     r0,0x8001a9c ; vTaskSwitchContext + 68
        0x08001a98:    2001        .       MOVS     r0,#1
        0x08001a9a:    e000        ..      B        0x8001a9e ; vTaskSwitchContext + 70
        0x08001a9c:    2000        .       MOVS     r0,#0
        0x08001a9e:    2800        .(      CMP      r0,#0
        0x08001aa0:    d1e7        ..      BNE      0x8001a72 ; vTaskSwitchContext + 26
        0x08001aa2:    eb010281    ....    ADD      r2,r1,r1,LSL #2
        0x08001aa6:    4b0e        .K      LDR      r3,[pc,#56] ; [0x8001ae0] = 0x200000e0
        0x08001aa8:    eb030082    ....    ADD      r0,r3,r2,LSL #2
        0x08001aac:    6842        Bh      LDR      r2,[r0,#4]
        0x08001aae:    6852        Rh      LDR      r2,[r2,#4]
        0x08001ab0:    6042        B`      STR      r2,[r0,#4]
        0x08001ab2:    f1000208    ....    ADD      r2,r0,#8
        0x08001ab6:    6843        Ch      LDR      r3,[r0,#4]
        0x08001ab8:    4293        .B      CMP      r3,r2
        0x08001aba:    d102        ..      BNE      0x8001ac2 ; vTaskSwitchContext + 106
        0x08001abc:    6842        Bh      LDR      r2,[r0,#4]
        0x08001abe:    6852        Rh      LDR      r2,[r2,#4]
        0x08001ac0:    6042        B`      STR      r2,[r0,#4]
        0x08001ac2:    6842        Bh      LDR      r2,[r0,#4]
        0x08001ac4:    68d2        .h      LDR      r2,[r2,#0xc]
        0x08001ac6:    4b07        .K      LDR      r3,[pc,#28] ; [0x8001ae4] = 0x20000014
        0x08001ac8:    601a        .`      STR      r2,[r3,#0]
        0x08001aca:    4804        .H      LDR      r0,[pc,#16] ; [0x8001adc] = 0x2000002c
        0x08001acc:    6001        .`      STR      r1,[r0,#0]
        0x08001ace:    bf00        ..      NOP      
        0x08001ad0:    4770        pG      BX       lr
    $d
        0x08001ad2:    0000        ..      DCW    0
        0x08001ad4:    2000004c    L..     DCD    536870988
        0x08001ad8:    20000038    8..     DCD    536870968
        0x08001adc:    2000002c    ,..     DCD    536870956
        0x08001ae0:    200000e0    ...     DCD    536871136
        0x08001ae4:    20000014    ...     DCD    536870932
    $t
    i.xPortSysTickHandler
    xPortSysTickHandler
        0x08001ae8:    b510        ..      PUSH     {r4,lr}
        0x08001aea:    bf00        ..      NOP      
        0x08001aec:    2050        P       MOVS     r0,#0x50
        0x08001aee:    f3808811    ....    MSR      BASEPRI,r0
        0x08001af2:    f3bf8f4f    ..O.    DSB      
        0x08001af6:    f3bf8f6f    ..o.    ISB      
        0x08001afa:    bf00        ..      NOP      
        0x08001afc:    f000f81e    ....    BL       xTaskIncrementTick ; 0x8001b3c
        0x08001b00:    b118        ..      CBZ      r0,0x8001b0a ; xPortSysTickHandler + 34
        0x08001b02:    f04f5080    O..P    MOV      r0,#0x10000000
        0x08001b06:    4904        .I      LDR      r1,[pc,#16] ; [0x8001b18] = 0xe000ed04
        0x08001b08:    6008        .`      STR      r0,[r1,#0]
        0x08001b0a:    bf00        ..      NOP      
        0x08001b0c:    2000        .       MOVS     r0,#0
        0x08001b0e:    f3808811    ....    MSR      BASEPRI,r0
        0x08001b12:    bf00        ..      NOP      
        0x08001b14:    bd10        ..      POP      {r4,pc}
    $d
        0x08001b16:    0000        ..      DCW    0
        0x08001b18:    e000ed04    ....    DCD    3758157060
    $t
    i.xTaskGetSchedulerState
    xTaskGetSchedulerState
        0x08001b1c:    4905        .I      LDR      r1,[pc,#20] ; [0x8001b34] = 0x20000030
        0x08001b1e:    6809        .h      LDR      r1,[r1,#0]
        0x08001b20:    b909        ..      CBNZ     r1,0x8001b26 ; xTaskGetSchedulerState + 10
        0x08001b22:    2001        .       MOVS     r0,#1
        0x08001b24:    e005        ..      B        0x8001b32 ; xTaskGetSchedulerState + 22
        0x08001b26:    4904        .I      LDR      r1,[pc,#16] ; [0x8001b38] = 0x2000004c
        0x08001b28:    6809        .h      LDR      r1,[r1,#0]
        0x08001b2a:    b909        ..      CBNZ     r1,0x8001b30 ; xTaskGetSchedulerState + 20
        0x08001b2c:    2002        .       MOVS     r0,#2
        0x08001b2e:    e000        ..      B        0x8001b32 ; xTaskGetSchedulerState + 22
        0x08001b30:    2000        .       MOVS     r0,#0
        0x08001b32:    4770        pG      BX       lr
    $d
        0x08001b34:    20000030    0..     DCD    536870960
        0x08001b38:    2000004c    L..     DCD    536870988
    $t
    i.xTaskIncrementTick
    xTaskIncrementTick
        0x08001b3c:    e92d41f0    -..A    PUSH     {r4-r8,lr}
        0x08001b40:    f04f0800    O...    MOV      r8,#0
        0x08001b44:    4843        CH      LDR      r0,[pc,#268] ; [0x8001c54] = 0x2000004c
        0x08001b46:    6800        .h      LDR      r0,[r0,#0]
        0x08001b48:    2800        .(      CMP      r0,#0
        0x08001b4a:    d17b        {.      BNE      0x8001c44 ; xTaskIncrementTick + 264
        0x08001b4c:    4842        BH      LDR      r0,[pc,#264] ; [0x8001c58] = 0x20000028
        0x08001b4e:    6800        .h      LDR      r0,[r0,#0]
        0x08001b50:    1c45        E.      ADDS     r5,r0,#1
        0x08001b52:    4841        AH      LDR      r0,[pc,#260] ; [0x8001c58] = 0x20000028
        0x08001b54:    6005        .`      STR      r5,[r0,#0]
        0x08001b56:    bb15        ..      CBNZ     r5,0x8001b9e ; xTaskIncrementTick + 98
        0x08001b58:    4840        @H      LDR      r0,[pc,#256] ; [0x8001c5c] = 0x20000018
        0x08001b5a:    6800        .h      LDR      r0,[r0,#0]
        0x08001b5c:    6800        .h      LDR      r0,[r0,#0]
        0x08001b5e:    b908        ..      CBNZ     r0,0x8001b64 ; xTaskIncrementTick + 40
        0x08001b60:    2001        .       MOVS     r0,#1
        0x08001b62:    e000        ..      B        0x8001b66 ; xTaskIncrementTick + 42
        0x08001b64:    2000        .       MOVS     r0,#0
        0x08001b66:    b950        P.      CBNZ     r0,0x8001b7e ; xTaskIncrementTick + 66
        0x08001b68:    bf00        ..      NOP      
        0x08001b6a:    2050        P       MOVS     r0,#0x50
        0x08001b6c:    f3808811    ....    MSR      BASEPRI,r0
        0x08001b70:    f3bf8f4f    ..O.    DSB      
        0x08001b74:    f3bf8f6f    ..o.    ISB      
        0x08001b78:    bf00        ..      NOP      
        0x08001b7a:    bf00        ..      NOP      
        0x08001b7c:    e7fe        ..      B        0x8001b7c ; xTaskIncrementTick + 64
        0x08001b7e:    4837        7H      LDR      r0,[pc,#220] ; [0x8001c5c] = 0x20000018
        0x08001b80:    6807        .h      LDR      r7,[r0,#0]
        0x08001b82:    4837        7H      LDR      r0,[pc,#220] ; [0x8001c60] = 0x2000001c
        0x08001b84:    6800        .h      LDR      r0,[r0,#0]
        0x08001b86:    4935        5I      LDR      r1,[pc,#212] ; [0x8001c5c] = 0x20000018
        0x08001b88:    6008        .`      STR      r0,[r1,#0]
        0x08001b8a:    4835        5H      LDR      r0,[pc,#212] ; [0x8001c60] = 0x2000001c
        0x08001b8c:    6007        .`      STR      r7,[r0,#0]
        0x08001b8e:    4835        5H      LDR      r0,[pc,#212] ; [0x8001c64] = 0x2000003c
        0x08001b90:    6800        .h      LDR      r0,[r0,#0]
        0x08001b92:    1c40        @.      ADDS     r0,r0,#1
        0x08001b94:    4933        3I      LDR      r1,[pc,#204] ; [0x8001c64] = 0x2000003c
        0x08001b96:    6008        .`      STR      r0,[r1,#0]
        0x08001b98:    f7ffff24    ..$.    BL       prvResetNextTaskUnblockTime ; 0x80019e4
        0x08001b9c:    bf00        ..      NOP      
        0x08001b9e:    4832        2H      LDR      r0,[pc,#200] ; [0x8001c68] = 0x20000044
        0x08001ba0:    6800        .h      LDR      r0,[r0,#0]
        0x08001ba2:    4285        .B      CMP      r5,r0
        0x08001ba4:    d33b        ;.      BCC      0x8001c1e ; xTaskIncrementTick + 226
        0x08001ba6:    bf00        ..      NOP      
        0x08001ba8:    482c        ,H      LDR      r0,[pc,#176] ; [0x8001c5c] = 0x20000018
        0x08001baa:    6800        .h      LDR      r0,[r0,#0]
        0x08001bac:    6800        .h      LDR      r0,[r0,#0]
        0x08001bae:    b908        ..      CBNZ     r0,0x8001bb4 ; xTaskIncrementTick + 120
        0x08001bb0:    2001        .       MOVS     r0,#1
        0x08001bb2:    e000        ..      B        0x8001bb6 ; xTaskIncrementTick + 122
        0x08001bb4:    2000        .       MOVS     r0,#0
        0x08001bb6:    b120         .      CBZ      r0,0x8001bc2 ; xTaskIncrementTick + 134
        0x08001bb8:    f04f30ff    O..0    MOV      r0,#0xffffffff
        0x08001bbc:    492a        *I      LDR      r1,[pc,#168] ; [0x8001c68] = 0x20000044
        0x08001bbe:    6008        .`      STR      r0,[r1,#0]
        0x08001bc0:    e02c        ,.      B        0x8001c1c ; xTaskIncrementTick + 224
        0x08001bc2:    4826        &H      LDR      r0,[pc,#152] ; [0x8001c5c] = 0x20000018
        0x08001bc4:    6800        .h      LDR      r0,[r0,#0]
        0x08001bc6:    68c0        .h      LDR      r0,[r0,#0xc]
        0x08001bc8:    68c4        .h      LDR      r4,[r0,#0xc]
        0x08001bca:    6866        fh      LDR      r6,[r4,#4]
        0x08001bcc:    42b5        .B      CMP      r5,r6
        0x08001bce:    d202        ..      BCS      0x8001bd6 ; xTaskIncrementTick + 154
        0x08001bd0:    4825        %H      LDR      r0,[pc,#148] ; [0x8001c68] = 0x20000044
        0x08001bd2:    6006        .`      STR      r6,[r0,#0]
        0x08001bd4:    e022        ".      B        0x8001c1c ; xTaskIncrementTick + 224
        0x08001bd6:    1d20         .      ADDS     r0,r4,#4
        0x08001bd8:    f7ffff1e    ....    BL       uxListRemove ; 0x8001a18
        0x08001bdc:    6aa0        .j      LDR      r0,[r4,#0x28]
        0x08001bde:    b118        ..      CBZ      r0,0x8001be8 ; xTaskIncrementTick + 172
        0x08001be0:    f1040018    ....    ADD      r0,r4,#0x18
        0x08001be4:    f7ffff18    ....    BL       uxListRemove ; 0x8001a18
        0x08001be8:    4920         I      LDR      r1,[pc,#128] ; [0x8001c6c] = 0x2000002c
        0x08001bea:    6ae0        .j      LDR      r0,[r4,#0x2c]
        0x08001bec:    6809        .h      LDR      r1,[r1,#0]
        0x08001bee:    4288        .B      CMP      r0,r1
        0x08001bf0:    d902        ..      BLS      0x8001bf8 ; xTaskIncrementTick + 188
        0x08001bf2:    491e        .I      LDR      r1,[pc,#120] ; [0x8001c6c] = 0x2000002c
        0x08001bf4:    6ae0        .j      LDR      r0,[r4,#0x2c]
        0x08001bf6:    6008        .`      STR      r0,[r1,#0]
        0x08001bf8:    6ae1        .j      LDR      r1,[r4,#0x2c]
        0x08001bfa:    eb010181    ....    ADD      r1,r1,r1,LSL #2
        0x08001bfe:    4a1c        .J      LDR      r2,[pc,#112] ; [0x8001c70] = 0x200000e0
        0x08001c00:    eb020081    ....    ADD      r0,r2,r1,LSL #2
        0x08001c04:    1d21        !.      ADDS     r1,r4,#4
        0x08001c06:    f7ffff1b    ....    BL       vListInsertEnd ; 0x8001a40
        0x08001c0a:    491a        .I      LDR      r1,[pc,#104] ; [0x8001c74] = 0x20000014
        0x08001c0c:    6ae0        .j      LDR      r0,[r4,#0x2c]
        0x08001c0e:    6809        .h      LDR      r1,[r1,#0]
        0x08001c10:    6ac9        .j      LDR      r1,[r1,#0x2c]
        0x08001c12:    4288        .B      CMP      r0,r1
        0x08001c14:    d3c8        ..      BCC      0x8001ba8 ; xTaskIncrementTick + 108
        0x08001c16:    f04f0801    O...    MOV      r8,#1
        0x08001c1a:    e7c5        ..      B        0x8001ba8 ; xTaskIncrementTick + 108
        0x08001c1c:    bf00        ..      NOP      
        0x08001c1e:    4815        .H      LDR      r0,[pc,#84] ; [0x8001c74] = 0x20000014
        0x08001c20:    6800        .h      LDR      r0,[r0,#0]
        0x08001c22:    6ac0        .j      LDR      r0,[r0,#0x2c]
        0x08001c24:    eb000080    ....    ADD      r0,r0,r0,LSL #2
        0x08001c28:    4911        .I      LDR      r1,[pc,#68] ; [0x8001c70] = 0x200000e0
        0x08001c2a:    f8510020    Q. .    LDR      r0,[r1,r0,LSL #2]
        0x08001c2e:    2801        .(      CMP      r0,#1
        0x08001c30:    d901        ..      BLS      0x8001c36 ; xTaskIncrementTick + 250
        0x08001c32:    f04f0801    O...    MOV      r8,#1
        0x08001c36:    4810        .H      LDR      r0,[pc,#64] ; [0x8001c78] = 0x20000038
        0x08001c38:    6800        .h      LDR      r0,[r0,#0]
        0x08001c3a:    b108        ..      CBZ      r0,0x8001c40 ; xTaskIncrementTick + 260
        0x08001c3c:    f04f0801    O...    MOV      r8,#1
        0x08001c40:    e005        ..      B        0x8001c4e ; xTaskIncrementTick + 274
        0x08001c42:    e7ff        ..      B        0x8001c44 ; xTaskIncrementTick + 264
        0x08001c44:    480d        .H      LDR      r0,[pc,#52] ; [0x8001c7c] = 0x20000034
        0x08001c46:    6800        .h      LDR      r0,[r0,#0]
        0x08001c48:    1c40        @.      ADDS     r0,r0,#1
        0x08001c4a:    490c        .I      LDR      r1,[pc,#48] ; [0x8001c7c] = 0x20000034
        0x08001c4c:    6008        .`      STR      r0,[r1,#0]
        0x08001c4e:    4640        @F      MOV      r0,r8
        0x08001c50:    e8bd81f0    ....    POP      {r4-r8,pc}
    $d
        0x08001c54:    2000004c    L..     DCD    536870988
        0x08001c58:    20000028    (..     DCD    536870952
        0x08001c5c:    20000018    ...     DCD    536870936
        0x08001c60:    2000001c    ...     DCD    536870940
        0x08001c64:    2000003c    <..     DCD    536870972
        0x08001c68:    20000044    D..     DCD    536870980
        0x08001c6c:    2000002c    ,..     DCD    536870956
        0x08001c70:    200000e0    ...     DCD    536871136
        0x08001c74:    20000014    ...     DCD    536870932
        0x08001c78:    20000038    8..     DCD    536870968
        0x08001c7c:    20000034    4..     DCD    536870964
    $d.realdata
    .constdata
    AHBPrescTable
        0x08001c80:    00000000    ....    DCD    0
        0x08001c84:    00000000    ....    DCD    0
        0x08001c88:    04030201    ....    DCD    67305985
        0x08001c8c:    09080706    ....    DCD    151521030
    APBPrescTable
        0x08001c90:    00000000    ....    DCD    0
        0x08001c94:    04030201    ....    DCD    67305985
    Region$$Table$$Base
        0x08001c98:    08001cb8    ....    DCD    134225080
        0x08001c9c:    20000000    ...     DCD    536870912
        0x08001ca0:    00000054    T...    DCD    84
        0x08001ca4:    08000fe8    ....    DCD    134221800
        0x08001ca8:    08001d0c    ....    DCD    134225164
        0x08001cac:    20000054    T..     DCD    536870996
        0x08001cb0:    00000954    T...    DCD    2388
        0x08001cb4:    08000ff8    ....    DCD    134221816
    Region$$Table$$Limit

** Section #2 'RW_IRAM1' (SHT_PROGBITS) [SHF_ALLOC + SHF_WRITE]
    Size   : 84 bytes (alignment 4)
    Address: 0x20000000


** Section #3 'RW_IRAM1' (SHT_NOBITS) [SHF_ALLOC + SHF_WRITE]
    Size   : 2388 bytes (alignment 8)
    Address: 0x20000054


** Section #4 '.debug_abbrev' (SHT_PROGBITS)
    Size   : 1476 bytes


** Section #5 '.debug_frame' (SHT_PROGBITS)
    Size   : 2932 bytes


** Section #6 '.debug_info' (SHT_PROGBITS)
    Size   : 46292 bytes


** Section #7 '.debug_line' (SHT_PROGBITS)
    Size   : 12252 bytes


** Section #8 '.debug_loc' (SHT_PROGBITS)
    Size   : 2740 bytes


** Section #9 '.debug_macinfo' (SHT_PROGBITS)
    Size   : 451956 bytes


** Section #10 '.debug_pubnames' (SHT_PROGBITS)
    Size   : 2342 bytes


** Section #11 '.symtab' (SHT_SYMTAB)
    Size   : 8496 bytes (alignment 4)
    String table #12 '.strtab'
    Last local symbol no. 320


** Section #12 '.strtab' (SHT_STRTAB)
    Size   : 9720 bytes


** Section #13 '.note' (SHT_NOTE)
    Size   : 28 bytes (alignment 4)


** Section #14 '.comment' (SHT_PROGBITS)
    Size   : 60344 bytes


** Section #15 '.shstrtab' (SHT_STRTAB)
    Size   : 156 bytes


address     size       variable name                            type
0x20000014  0x4        pxCurrentTCB                             volatile pointer to TCB_t

address     size       variable name                            type
0x20000018  0x4        pxDelayedTaskList                        volatile pointer to List_t

address     size       variable name                            type
0x2000001c  0x4        pxOverflowDelayedTaskList                volatile pointer to List_t

address     size       variable name                            type
0x200000e0  0x460      pxReadyTasksLists                        array[56] of List_t

address     size       variable name                            type
0x20000024  0x4        uxCurrentNumberOfTasks                   volatile UBaseType_t

address     size       variable name                            type
0x20000020  0x4        uxDeletedTasksWaitingCleanUp             volatile UBaseType_t

address     size       variable name                            type
0x2000004c  0x4        uxSchedulerSuspended                     volatile UBaseType_t

address     size       variable name                            type
0x20000040  0x4        uxTaskNumber                             UBaseType_t

address     size       variable name                            type
0x2000002c  0x4        uxTopReadyPriority                       volatile UBaseType_t

address     size       variable name                            type
0x20000540  0x14       xDelayedTaskList1                        List_t
0x20000540  0x4        xDelayedTaskList1.uxNumberOfItems        volatile UBaseType_t
0x20000544  0x4        xDelayedTaskList1.pxIndex                pointer to ListItem_t
0x20000548  0xc        xDelayedTaskList1.xListEnd               MiniListItem_t
0x20000548  0x4        xDelayedTaskList1.xListEnd.xItemValue    TickType_t
0x2000054c  0x4        xDelayedTaskList1.xListEnd.pxNext        pointer to xLIST_ITEM
0x20000550  0x4        xDelayedTaskList1.xListEnd.pxPrevious    pointer to xLIST_ITEM

address     size       variable name                            type
0x20000554  0x14       xDelayedTaskList2                        List_t
0x20000554  0x4        xDelayedTaskList2.uxNumberOfItems        volatile UBaseType_t
0x20000558  0x4        xDelayedTaskList2.pxIndex                pointer to ListItem_t
0x2000055c  0xc        xDelayedTaskList2.xListEnd               MiniListItem_t
0x2000055c  0x4        xDelayedTaskList2.xListEnd.xItemValue    TickType_t
0x20000560  0x4        xDelayedTaskList2.xListEnd.pxNext        pointer to xLIST_ITEM
0x20000564  0x4        xDelayedTaskList2.xListEnd.pxPrevious    pointer to xLIST_ITEM

address     size       variable name                            type
0x20000048  0x4        xIdleTaskHandle                          TaskHandle_t

address     size       variable name                            type
0x20000044  0x4        xNextTaskUnblockTime                     volatile TickType_t

address     size       variable name                            type
0x2000003c  0x4        xNumOfOverflows                          volatile BaseType_t

address     size       variable name                            type
0x20000034  0x4        xPendedTicks                             volatile TickType_t

address     size       variable name                            type
0x20000568  0x14       xPendingReadyList                        List_t
0x20000568  0x4        xPendingReadyList.uxNumberOfItems        volatile UBaseType_t
0x2000056c  0x4        xPendingReadyList.pxIndex                pointer to ListItem_t
0x20000570  0xc        xPendingReadyList.xListEnd               MiniListItem_t
0x20000570  0x4        xPendingReadyList.xListEnd.xItemValue    TickType_t
0x20000574  0x4        xPendingReadyList.xListEnd.pxNext        pointer to xLIST_ITEM
0x20000578  0x4        xPendingReadyList.xListEnd.pxPrevious    pointer to xLIST_ITEM

address     size       variable name                            type
0x20000030  0x4        xSchedulerRunning                        volatile BaseType_t

address     size       variable name                            type
0x20000590  0x14       xSuspendedTaskList                       List_t
0x20000590  0x4        xSuspendedTaskList.uxNumberOfItems       volatile UBaseType_t
0x20000594  0x4        xSuspendedTaskList.pxIndex               pointer to ListItem_t
0x20000598  0xc        xSuspendedTaskList.xListEnd              MiniListItem_t
0x20000598  0x4        xSuspendedTaskList.xListEnd.xItemValue   TickType_t
0x2000059c  0x4        xSuspendedTaskList.xListEnd.pxNext       pointer to xLIST_ITEM
0x200005a0  0x4        xSuspendedTaskList.xListEnd.pxPrevious   pointer to xLIST_ITEM

address     size       variable name                            type
0x2000057c  0x14       xTasksWaitingTermination                 List_t
0x2000057c  0x4        xTasksWaitingTermination.uxNumberOfItems volatile UBaseType_t
0x20000580  0x4        xTasksWaitingTermination.pxIndex         pointer to ListItem_t
0x20000584  0xc        xTasksWaitingTermination.xListEnd        MiniListItem_t
0x20000584  0x4        xTasksWaitingTermination.xListEnd.xItemValue TickType_t
0x20000588  0x4        xTasksWaitingTermination.xListEnd.pxNext pointer to xLIST_ITEM
0x2000058c  0x4        xTasksWaitingTermination.xListEnd.pxPrevious pointer to xLIST_ITEM

address     size       variable name                            type
0x20000028  0x4        xTickCount                               volatile TickType_t

address     size       variable name                            type
0x20000038  0x4        xYieldPending                            volatile BaseType_t

address     size       variable name                            type
0x08001c80  0x10       AHBPrescTable                            array[16] of const uint8_t

address     size       variable name                            type
0x08001c90  0x8        APBPrescTable                            array[8] of const uint8_t

address     size       variable name                            type
0x20000010  0x4        SystemCoreClock                          uint32_t

address     size       variable name                            type
0x20000004  0x4        uwTick                                   volatile uint32_t

address     size       variable name                            type
0x2000000c  0x1        uwTickFreq                               HAL_TickFreqTypeDef

address     size       variable name                            type
0x20000008  0x4        uwTickPrio                               uint32_t

address     size       variable name                            type
0x20000098  0x48       htim1                                    TIM_HandleTypeDef
0x20000098  0x4        htim1.Instance                           pointer to TIM_TypeDef
0x2000009c  0x18       htim1.Init                               TIM_Base_InitTypeDef
0x2000009c  0x4        htim1.Init.Prescaler                     uint32_t
0x200000a0  0x4        htim1.Init.CounterMode                   uint32_t
0x200000a4  0x4        htim1.Init.Period                        uint32_t
0x200000a8  0x4        htim1.Init.ClockDivision                 uint32_t
0x200000ac  0x4        htim1.Init.RepetitionCounter             uint32_t
0x200000b0  0x4        htim1.Init.AutoReloadPreload             uint32_t
0x200000b4  0x1      * htim1.Channel                            HAL_TIM_ActiveChannel
0x200000b8  0x1c       htim1.hdma                               array[7] of pointer to DMA_HandleTypeDef
0x200000d4  0x1        htim1.Lock                               HAL_LockTypeDef
0x200000d5  0x1        htim1.State                              volatile HAL_TIM_StateTypeDef
0x200000d6  0x4        htim1.ChannelState                       array[4] of volatile HAL_TIM_ChannelStateTypeDef
0x200000da  0x4        htim1.ChannelNState                      array[4] of volatile HAL_TIM_ChannelStateTypeDef
0x200000de  0x1        htim1.DMABurstState                      volatile HAL_TIM_DMABurstStateTypeDef

address     size       variable name                            type
0x20000054  0x44       huart1                                   UART_HandleTypeDef
0x20000054  0x4        huart1.Instance                          pointer to USART_TypeDef
0x20000058  0x1c       huart1.Init                              UART_InitTypeDef
0x20000058  0x4        huart1.Init.BaudRate                     uint32_t
0x2000005c  0x4        huart1.Init.WordLength                   uint32_t
0x20000060  0x4        huart1.Init.StopBits                     uint32_t
0x20000064  0x4        huart1.Init.Parity                       uint32_t
0x20000068  0x4        huart1.Init.Mode                         uint32_t
0x2000006c  0x4        huart1.Init.HwFlowCtl                    uint32_t
0x20000070  0x4        huart1.Init.OverSampling                 uint32_t
0x20000074  0x4        huart1.pTxBuffPtr                        pointer to const uint8_t
0x20000078  0x2        huart1.TxXferSize                        uint16_t
0x2000007a  0x2        huart1.TxXferCount                       volatile uint16_t
0x2000007c  0x4        huart1.pRxBuffPtr                        pointer to uint8_t
0x20000080  0x2        huart1.RxXferSize                        uint16_t
0x20000082  0x2        huart1.RxXferCount                       volatile uint16_t
0x20000084  0x4        huart1.ReceptionType                     volatile HAL_UART_RxTypeTypeDef
0x20000088  0x4        huart1.hdmatx                            pointer to DMA_HandleTypeDef
0x2000008c  0x4        huart1.hdmarx                            pointer to DMA_HandleTypeDef
0x20000090  0x1        huart1.Lock                              HAL_LockTypeDef
0x20000091  0x1        huart1.gState                            volatile HAL_UART_StateTypeDef
0x20000092  0x1      * huart1.RxState                           volatile HAL_UART_StateTypeDef
0x20000094  0x4        huart1.ErrorCode                         volatile uint32_t

address     size       variable name                            type
0x20000000  0x1        g_test_date                              uint8_t

